
/home/matthias/Documents/FIVU/ue11/dist/sure.elf:     Dateiformat elf32-avr

Sektionen:
Idx Name          Größe     VMA       LMA       Datei-Off Ausr.
  0 .text         0000287a  00000000  00000000  00000094  2**1
                  CONTENTS, ALLOC, LOAD, READONLY, CODE
  1 .data         000000ea  00800060  0000287a  0000290e  2**0
                  CONTENTS, ALLOC, LOAD, DATA
  2 .bss          00000053  0080014a  0080014a  000029f8  2**0
                  ALLOC
  3 .stab         00006864  00000000  00000000  000029f8  2**2
                  CONTENTS, READONLY, DEBUGGING
  4 .stabstr      000016ae  00000000  00000000  0000925c  2**0
                  CONTENTS, READONLY, DEBUGGING
  5 .comment      00000011  00000000  00000000  0000a90a  2**0
                  CONTENTS, READONLY

Disassembly of section .text:

00000000 <__vectors>:
       0:	0c 94 4a 01 	jmp	0x294	; 0x294 <__ctors_end>
       4:	0c 94 67 01 	jmp	0x2ce	; 0x2ce <__bad_interrupt>
       8:	0c 94 67 01 	jmp	0x2ce	; 0x2ce <__bad_interrupt>
       c:	0c 94 67 01 	jmp	0x2ce	; 0x2ce <__bad_interrupt>
      10:	0c 94 67 01 	jmp	0x2ce	; 0x2ce <__bad_interrupt>
      14:	0c 94 67 01 	jmp	0x2ce	; 0x2ce <__bad_interrupt>
      18:	0c 94 67 01 	jmp	0x2ce	; 0x2ce <__bad_interrupt>
      1c:	0c 94 67 01 	jmp	0x2ce	; 0x2ce <__bad_interrupt>
      20:	0c 94 67 01 	jmp	0x2ce	; 0x2ce <__bad_interrupt>
      24:	0c 94 67 01 	jmp	0x2ce	; 0x2ce <__bad_interrupt>
      28:	0c 94 67 01 	jmp	0x2ce	; 0x2ce <__bad_interrupt>
      2c:	0c 94 39 08 	jmp	0x1072	; 0x1072 <__vector_11>
      30:	0c 94 67 01 	jmp	0x2ce	; 0x2ce <__bad_interrupt>
      34:	0c 94 67 01 	jmp	0x2ce	; 0x2ce <__bad_interrupt>
      38:	0c 94 67 01 	jmp	0x2ce	; 0x2ce <__bad_interrupt>
      3c:	0c 94 67 01 	jmp	0x2ce	; 0x2ce <__bad_interrupt>
      40:	0c 94 67 01 	jmp	0x2ce	; 0x2ce <__bad_interrupt>
      44:	0c 94 67 01 	jmp	0x2ce	; 0x2ce <__bad_interrupt>
      48:	0c 94 67 01 	jmp	0x2ce	; 0x2ce <__bad_interrupt>
      4c:	0c 94 97 08 	jmp	0x112e	; 0x112e <__vector_19>
      50:	0c 94 67 01 	jmp	0x2ce	; 0x2ce <__bad_interrupt>

00000054 <FLASHSTRING_TIME>:
      54:	31 34 3a 30 37 3a 34 39 00                          14:07:49.

0000005d <FLASHSTRING_DATE>:
      5d:	4d 61 79 20 31 38 20 32 30 31 37 00                 May 18 2017.

00000069 <FLASHSTRING_WELCOME>:
      69:	0a 0d 50 72 6f 67 72 61 6d 6d 20 3f 3f 20 00        ..Programm ?? .

00000078 <MON_PMEMSTR_CMDS>:
      78:	b9 00 b0 01 9d 00 80 01 84 00 c0 01                 ............

00000084 <MON_PMEM_CMD_ADC>:
      84:	41 44 43 00 41 44 43 2d 57 65 72 74 20 41 75 73     ADC.ADC-Wert Aus
      94:	67 61 62 65 00 41 44 43 00                          gabe.ADC.

0000009d <MON_PMEM_CMD_TEST>:
      9d:	74 65 73 74 00 63 6f 6d 6d 61 6e 64 6f 20 66 6f     test.commando fo
      ad:	72 20 74 65 73 74 00 74 65 73 74 00                 r test.test.

000000b9 <MON_PMEM_CMD_INFO>:
      b9:	69 6e 66 6f 00 41 70 70 6c 69 63 61 74 69 6f 6e     info.Application
      c9:	20 69 6e 66 6f 73 00 69 6e 66 6f 00                  infos.info.

000000d5 <MON_LINE_WELCOME>:
      d5:	4c 69 6e 65 2d 4d 6f 64 65 3a 20 43 54 52 4c 2d     Line-Mode: CTRL-
      e5:	58 2c 20 43 54 52 4c 2d 59 2c 20 43 54 52 4c 2d     X, CTRL-Y, CTRL-
      f5:	43 2c 20 52 65 74 75 72 6e 20 20 0a 0d 00           C, Return  ...

00000103 <SYS_PMEMSTR_CMDS>:
     103:	29 01 90 05 0b 01 29 04                             ).....).

0000010b <SYS_PMEM_CMD_SINFO>:
     10b:	73 69 6e 66 6f 00 53 79 73 74 65 6d 69 6e 66 6f     sinfo.Systeminfo
     11b:	72 6d 61 74 69 6f 6e 00 73 69 6e 66 6f 00           rmation.sinfo.

00000129 <SYS_PMEM_CMD_HELP>:
     129:	68 65 6c 70 00 4c 69 73 74 20 6f 66 20 61 6c 6c     help.List of all
     139:	20 63 6f 6d 6d 61 6e 64 73 00 68 65 6c 70 00         commands.help.

00000148 <SYS_PMEM_ERR2>:
     148:	20 2d 3e 20 53 79 6e 74 61 78 20 65 72 72 6f 72      -> Syntax error
     158:	0a 0d 55 73 61 67 65 3a 20 00                       ..Usage: .

00000162 <SYS_PMEM_ERR1>:
     162:	45 72 72 6f 72 3a 20 55 6e 6b 6e 6f 77 6e 20 63     Error: Unknown c
     172:	6f 6d 6d 61 6e 64 0a 0d 00                          ommand...

0000017b <SYS_PMEM_ERR0>:
     17b:	45 72 72 6f 72 20 00                                Error .

00000182 <SYS_PMEM_LINESTART>:
     182:	0a 0d 3e 00                                         ..>.

00000186 <__c.2086>:
     186:	6e 61 6e 00                                         nan.

0000018a <__c.2084>:
     18a:	69 6e 66 00 00 40 7a 10 f3 5a 00 a0 72 4e 18 09     inf..@z..Z..rN..
     19a:	00 10 a5 d4 e8 00 00 e8 76 48 17 00 00 e4 0b 54     ........vH.....T
     1aa:	02 00 00 ca 9a 3b 00 00 00 e1 f5 05 00 00 80 96     .....;..........
     1ba:	98 00 00 00 40 42 0f 00 00 00 a0 86 01 00 00 00     ....@B..........
     1ca:	10 27 00 00 00 00 e8 03 00 00 00 00 64 00 00 00     .'..........d...
     1da:	00 00 0a 00 00 00 00 00 01 00 00 00 00 00 2c 76     ..............,v
     1ea:	d8 88 dc 67 4f 08 23 df c1 df ae 59 e1 b1 b7 96     ...gO.#....Y....
     1fa:	e5 e3 e4 53 c6 3a e6 51 99 76 96 e8 e6 c2 84 26     ...S.:.Q.v.....&
     20a:	eb 89 8c 9b 62 ed 40 7c 6f fc ef bc 9c 9f 40 f2     ....b.@|o.....@.
     21a:	ba a5 6f a5 f4 90 05 5a 2a f7 5c 93 6b 6c f9 67     ..o....Z*.\.kl.g
     22a:	6d c1 1b fc e0 e4 0d 47 fe f5 20 e6 b5 00 d0 ed     m......G.. .....
     23a:	90 2e 03 00 94 35 77 05 00 80 84 1e 08 00 00 20     .....5w........ 
     24a:	4e 0a 00 00 00 c8 0c 33 33 33 33 0f 98 6e 12 83     N......3333..n..
     25a:	11 41 ef 8d 21 14 89 3b e6 55 16 cf fe e6 db 18     .A..!..;.U......
     26a:	d1 84 4b 38 1b f7 7c 1d 90 1d a4 bb e4 24 20 32     ..K8..|......$ 2
     27a:	84 72 5e 22 81 00 c9 f1 24 ec a1 e5 3d 27           .r^"....$...='

00000288 <__c.2224>:
     288:	63 64 69 6e 6f 70 73 75 78 58 5b 00                 cdinopsuxX[.

00000294 <__ctors_end>:
     294:	11 24       	eor	r1, r1
     296:	1f be       	out	0x3f, r1	; 63
     298:	cf e5       	ldi	r28, 0x5F	; 95
     29a:	d4 e0       	ldi	r29, 0x04	; 4
     29c:	de bf       	out	0x3e, r29	; 62
     29e:	cd bf       	out	0x3d, r28	; 61

000002a0 <__do_copy_data>:
     2a0:	11 e0       	ldi	r17, 0x01	; 1
     2a2:	a0 e6       	ldi	r26, 0x60	; 96
     2a4:	b0 e0       	ldi	r27, 0x00	; 0
     2a6:	ea e7       	ldi	r30, 0x7A	; 122
     2a8:	f8 e2       	ldi	r31, 0x28	; 40
     2aa:	02 c0       	rjmp	.+4      	; 0x2b0 <__do_copy_data+0x10>
     2ac:	05 90       	lpm	r0, Z+
     2ae:	0d 92       	st	X+, r0
     2b0:	aa 34       	cpi	r26, 0x4A	; 74
     2b2:	b1 07       	cpc	r27, r17
     2b4:	d9 f7       	brne	.-10     	; 0x2ac <__do_copy_data+0xc>

000002b6 <__do_clear_bss>:
     2b6:	11 e0       	ldi	r17, 0x01	; 1
     2b8:	aa e4       	ldi	r26, 0x4A	; 74
     2ba:	b1 e0       	ldi	r27, 0x01	; 1
     2bc:	01 c0       	rjmp	.+2      	; 0x2c0 <.do_clear_bss_start>

000002be <.do_clear_bss_loop>:
     2be:	1d 92       	st	X+, r1

000002c0 <.do_clear_bss_start>:
     2c0:	ad 39       	cpi	r26, 0x9D	; 157
     2c2:	b1 07       	cpc	r27, r17
     2c4:	e1 f7       	brne	.-8      	; 0x2be <.do_clear_bss_loop>
     2c6:	0e 94 05 09 	call	0x120a	; 0x120a <main>
     2ca:	0c 94 3b 14 	jmp	0x2876	; 0x2876 <_exit>

000002ce <__bad_interrupt>:
     2ce:	0c 94 00 00 	jmp	0	; 0x0 <__vectors>

000002d2 <app_init>:
     2d2:	10 92 52 01 	sts	0x0152, r1
     2d6:	10 92 51 01 	sts	0x0151, r1
     2da:	87 b1       	in	r24, 0x07	; 7
     2dc:	8e 63       	ori	r24, 0x3E	; 62
     2de:	87 b9       	out	0x07, r24	; 7
     2e0:	87 ec       	ldi	r24, 0xC7	; 199
     2e2:	86 b9       	out	0x06, r24	; 6
     2e4:	08 95       	ret

000002e6 <app_main>:
     2e6:	08 95       	ret

000002e8 <app_task_1ms>:
     2e8:	85 b1       	in	r24, 0x05	; 5
     2ea:	80 93 52 01 	sts	0x0152, r24
     2ee:	36 9a       	sbi	0x06, 6	; 6
     2f0:	08 95       	ret

000002f2 <app_task_2ms>:
     2f2:	08 95       	ret

000002f4 <app_task_4ms>:
     2f4:	08 95       	ret

000002f6 <app_task_8ms>:
     2f6:	08 95       	ret

000002f8 <app_task_16ms>:
     2f8:	08 95       	ret

000002fa <app_task_32ms>:
     2fa:	08 95       	ret

000002fc <app_task_64ms>:
     2fc:	08 95       	ret

000002fe <app_task_128ms>:
     2fe:	08 95       	ret

00000300 <mon_cmd_test>:
     300:	df 92       	push	r13
     302:	ef 92       	push	r14
     304:	ff 92       	push	r15
     306:	0f 93       	push	r16
     308:	1f 93       	push	r17
     30a:	cf 93       	push	r28
     30c:	df 93       	push	r29
     30e:	d8 2e       	mov	r13, r24
     310:	88 23       	and	r24, r24
     312:	e9 f0       	breq	.+58     	; 0x34e <mon_cmd_test+0x4e>
     314:	8b 01       	movw	r16, r22
     316:	c0 e0       	ldi	r28, 0x00	; 0
     318:	d0 e0       	ldi	r29, 0x00	; 0
     31a:	8c e7       	ldi	r24, 0x7C	; 124
     31c:	e8 2e       	mov	r14, r24
     31e:	80 e0       	ldi	r24, 0x00	; 0
     320:	f8 2e       	mov	r15, r24
     322:	f8 01       	movw	r30, r16
     324:	90 81       	ld	r25, Z
     326:	21 81       	ldd	r18, Z+1	; 0x01
     328:	0e 5f       	subi	r16, 0xFE	; 254
     32a:	1f 4f       	sbci	r17, 0xFF	; 255
     32c:	2f 93       	push	r18
     32e:	9f 93       	push	r25
     330:	df 93       	push	r29
     332:	cf 93       	push	r28
     334:	ff 92       	push	r15
     336:	ef 92       	push	r14
     338:	0e 94 86 10 	call	0x210c	; 0x210c <printf>
     33c:	21 96       	adiw	r28, 0x01	; 1
     33e:	0f 90       	pop	r0
     340:	0f 90       	pop	r0
     342:	0f 90       	pop	r0
     344:	0f 90       	pop	r0
     346:	0f 90       	pop	r0
     348:	0f 90       	pop	r0
     34a:	cd 15       	cp	r28, r13
     34c:	50 f3       	brcs	.-44     	; 0x322 <mon_cmd_test+0x22>
     34e:	80 e0       	ldi	r24, 0x00	; 0
     350:	df 91       	pop	r29
     352:	cf 91       	pop	r28
     354:	1f 91       	pop	r17
     356:	0f 91       	pop	r16
     358:	ff 90       	pop	r15
     35a:	ef 90       	pop	r14
     35c:	df 90       	pop	r13
     35e:	08 95       	ret

00000360 <mon_cmd_info>:
     360:	85 e8       	ldi	r24, 0x85	; 133
     362:	90 e0       	ldi	r25, 0x00	; 0
     364:	9f 93       	push	r25
     366:	8f 93       	push	r24
     368:	0e 94 86 10 	call	0x210c	; 0x210c <printf>
     36c:	80 91 7f 01 	lds	r24, 0x017F
     370:	0e 94 0e 04 	call	0x81c	; 0x81c <sys_printHexBin8>
     374:	0e 94 5f 03 	call	0x6be	; 0x6be <sys_newline>
     378:	0f 90       	pop	r0
     37a:	0f 90       	pop	r0
     37c:	80 e0       	ldi	r24, 0x00	; 0
     37e:	08 95       	ret

00000380 <mon_cmd_adc>:
     380:	8f 92       	push	r8
     382:	9f 92       	push	r9
     384:	af 92       	push	r10
     386:	bf 92       	push	r11
     388:	cf 92       	push	r12
     38a:	df 92       	push	r13
     38c:	ef 92       	push	r14
     38e:	ff 92       	push	r15
     390:	0f 93       	push	r16
     392:	1f 93       	push	r17
     394:	cf 93       	push	r28
     396:	df 93       	push	r29
     398:	cd b7       	in	r28, 0x3d	; 61
     39a:	de b7       	in	r29, 0x3e	; 62
     39c:	28 97       	sbiw	r28, 0x08	; 8
     39e:	0f b6       	in	r0, 0x3f	; 63
     3a0:	f8 94       	cli
     3a2:	de bf       	out	0x3e, r29	; 62
     3a4:	0f be       	out	0x3f, r0	; 63
     3a6:	cd bf       	out	0x3d, r28	; 61
     3a8:	ce 01       	movw	r24, r28
     3aa:	05 96       	adiw	r24, 0x05	; 5
     3ac:	9f 93       	push	r25
     3ae:	8f 93       	push	r24
     3b0:	06 e9       	ldi	r16, 0x96	; 150
     3b2:	10 e0       	ldi	r17, 0x00	; 0
     3b4:	1f 93       	push	r17
     3b6:	0f 93       	push	r16
     3b8:	fb 01       	movw	r30, r22
     3ba:	83 81       	ldd	r24, Z+3	; 0x03
     3bc:	8f 93       	push	r24
     3be:	82 81       	ldd	r24, Z+2	; 0x02
     3c0:	8f 93       	push	r24
     3c2:	0e 94 a1 10 	call	0x2142	; 0x2142 <scanf>
     3c6:	bc 01       	movw	r22, r24
     3c8:	88 27       	eor	r24, r24
     3ca:	77 fd       	sbrc	r23, 7
     3cc:	80 95       	com	r24
     3ce:	98 2f       	mov	r25, r24
     3d0:	0e 94 45 0d 	call	0x1a8a	; 0x1a8a <__floatsisf>
     3d4:	6d 83       	std	Y+5, r22	; 0x05
     3d6:	7e 83       	std	Y+6, r23	; 0x06
     3d8:	8f 83       	std	Y+7, r24	; 0x07
     3da:	98 87       	std	Y+8, r25	; 0x08
     3dc:	60 91 52 01 	lds	r22, 0x0152
     3e0:	70 e0       	ldi	r23, 0x00	; 0
     3e2:	80 e0       	ldi	r24, 0x00	; 0
     3e4:	90 e0       	ldi	r25, 0x00	; 0
     3e6:	0e 94 45 0d 	call	0x1a8a	; 0x1a8a <__floatsisf>
     3ea:	6b 01       	movw	r12, r22
     3ec:	7c 01       	movw	r14, r24
     3ee:	9b 01       	movw	r18, r22
     3f0:	ac 01       	movw	r20, r24
     3f2:	6a e0       	ldi	r22, 0x0A	; 10
     3f4:	77 ed       	ldi	r23, 0xD7	; 215
     3f6:	83 e2       	ldi	r24, 0x23	; 35
     3f8:	94 e4       	ldi	r25, 0x44	; 68
     3fa:	0e 94 db 0c 	call	0x19b6	; 0x19b6 <__divsf3>
     3fe:	b6 2e       	mov	r11, r22
     400:	a7 2e       	mov	r10, r23
     402:	98 2e       	mov	r9, r24
     404:	89 2e       	mov	r8, r25
     406:	b5 01       	movw	r22, r10
     408:	c4 01       	movw	r24, r8
     40a:	27 2f       	mov	r18, r23
     40c:	36 2f       	mov	r19, r22
     40e:	49 2f       	mov	r20, r25
     410:	58 2f       	mov	r21, r24
     412:	c7 01       	movw	r24, r14
     414:	b6 01       	movw	r22, r12
     416:	0e 94 db 0c 	call	0x19b6	; 0x19b6 <__divsf3>
     41a:	69 83       	std	Y+1, r22	; 0x01
     41c:	7a 83       	std	Y+2, r23	; 0x02
     41e:	8b 83       	std	Y+3, r24	; 0x03
     420:	9c 83       	std	Y+4, r25	; 0x04
     422:	8f 92       	push	r8
     424:	9f 92       	push	r9
     426:	af 92       	push	r10
     428:	bf 92       	push	r11
     42a:	1f 93       	push	r17
     42c:	0f 93       	push	r16
     42e:	0e 94 86 10 	call	0x210c	; 0x210c <printf>
     432:	ce 01       	movw	r24, r28
     434:	01 96       	adiw	r24, 0x01	; 1
     436:	9f 93       	push	r25
     438:	8f 93       	push	r24
     43a:	1f 93       	push	r17
     43c:	0f 93       	push	r16
     43e:	1f 92       	push	r1
     440:	1f 92       	push	r1
     442:	0e 94 a1 10 	call	0x2142	; 0x2142 <scanf>
     446:	0f b6       	in	r0, 0x3f	; 63
     448:	f8 94       	cli
     44a:	de bf       	out	0x3e, r29	; 62
     44c:	0f be       	out	0x3f, r0	; 63
     44e:	cd bf       	out	0x3d, r28	; 61
     450:	e1 99       	sbic	0x1c, 1	; 28
     452:	fe cf       	rjmp	.-4      	; 0x450 <mon_cmd_adc+0xd0>
     454:	1f ba       	out	0x1f, r1	; 31
     456:	1e ba       	out	0x1e, r1	; 30
     458:	1d ba       	out	0x1d, r1	; 29
     45a:	e2 9a       	sbi	0x1c, 2	; 28
     45c:	e1 9a       	sbi	0x1c, 1	; 28
     45e:	80 e0       	ldi	r24, 0x00	; 0
     460:	28 96       	adiw	r28, 0x08	; 8
     462:	0f b6       	in	r0, 0x3f	; 63
     464:	f8 94       	cli
     466:	de bf       	out	0x3e, r29	; 62
     468:	0f be       	out	0x3f, r0	; 63
     46a:	cd bf       	out	0x3d, r28	; 61
     46c:	df 91       	pop	r29
     46e:	cf 91       	pop	r28
     470:	1f 91       	pop	r17
     472:	0f 91       	pop	r16
     474:	ff 90       	pop	r15
     476:	ef 90       	pop	r14
     478:	df 90       	pop	r13
     47a:	cf 90       	pop	r12
     47c:	bf 90       	pop	r11
     47e:	af 90       	pop	r10
     480:	9f 90       	pop	r9
     482:	8f 90       	pop	r8
     484:	08 95       	ret

00000486 <mon_init>:
     486:	10 92 53 01 	sts	0x0153, r1
     48a:	08 95       	ret

0000048c <mon_main>:
     48c:	08 95       	ret

0000048e <mon_getCmdCount>:
     48e:	83 e0       	ldi	r24, 0x03	; 3
     490:	08 95       	ret

00000492 <EEPROM_write>:
     492:	e1 99       	sbic	0x1c, 1	; 28
     494:	fe cf       	rjmp	.-4      	; 0x492 <EEPROM_write>
     496:	1f ba       	out	0x1f, r1	; 31
     498:	1e ba       	out	0x1e, r1	; 30
     49a:	6d bb       	out	0x1d, r22	; 29
     49c:	e2 9a       	sbi	0x1c, 2	; 28
     49e:	e1 9a       	sbi	0x1c, 1	; 28
     4a0:	08 95       	ret

000004a2 <mon_printLineHeader>:
     4a2:	88 23       	and	r24, r24
     4a4:	c1 f0       	breq	.+48     	; 0x4d6 <mon_printLineHeader+0x34>
     4a6:	81 30       	cpi	r24, 0x01	; 1
     4a8:	61 f0       	breq	.+24     	; 0x4c2 <mon_printLineHeader+0x20>
     4aa:	82 30       	cpi	r24, 0x02	; 2
     4ac:	11 f5       	brne	.+68     	; 0x4f2 <mon_printLineHeader+0x50>
     4ae:	8f ec       	ldi	r24, 0xCF	; 207
     4b0:	90 e0       	ldi	r25, 0x00	; 0
     4b2:	9f 93       	push	r25
     4b4:	8f 93       	push	r24
     4b6:	0e 94 86 10 	call	0x210c	; 0x210c <printf>
     4ba:	0f 90       	pop	r0
     4bc:	0f 90       	pop	r0
     4be:	8f e0       	ldi	r24, 0x0F	; 15
     4c0:	08 95       	ret
     4c2:	8b ea       	ldi	r24, 0xAB	; 171
     4c4:	90 e0       	ldi	r25, 0x00	; 0
     4c6:	9f 93       	push	r25
     4c8:	8f 93       	push	r24
     4ca:	0e 94 86 10 	call	0x210c	; 0x210c <printf>
     4ce:	0f 90       	pop	r0
     4d0:	0f 90       	pop	r0
     4d2:	88 e2       	ldi	r24, 0x28	; 40
     4d4:	08 95       	ret
     4d6:	85 ed       	ldi	r24, 0xD5	; 213
     4d8:	90 e0       	ldi	r25, 0x00	; 0
     4da:	0e 94 68 03 	call	0x6d0	; 0x6d0 <sys_printString_P>
     4de:	89 e9       	ldi	r24, 0x99	; 153
     4e0:	90 e0       	ldi	r25, 0x00	; 0
     4e2:	9f 93       	push	r25
     4e4:	8f 93       	push	r24
     4e6:	0e 94 86 10 	call	0x210c	; 0x210c <printf>
     4ea:	0f 90       	pop	r0
     4ec:	0f 90       	pop	r0
     4ee:	84 e1       	ldi	r24, 0x14	; 20
     4f0:	08 95       	ret
     4f2:	8f ef       	ldi	r24, 0xFF	; 255
     4f4:	08 95       	ret

000004f6 <mon_printLine>:
     4f6:	cf 93       	push	r28
     4f8:	81 30       	cpi	r24, 0x01	; 1
     4fa:	e9 f1       	breq	.+122    	; 0x576 <mon_printLine+0x80>
     4fc:	60 f1       	brcs	.+88     	; 0x556 <mon_printLine+0x60>
     4fe:	82 30       	cpi	r24, 0x02	; 2
     500:	19 f0       	breq	.+6      	; 0x508 <mon_printLine+0x12>
     502:	8f ef       	ldi	r24, 0xFF	; 255
     504:	cf 91       	pop	r28
     506:	08 95       	ret
     508:	c0 91 52 01 	lds	r28, 0x0152
     50c:	6c 2f       	mov	r22, r28
     50e:	70 e0       	ldi	r23, 0x00	; 0
     510:	80 e0       	ldi	r24, 0x00	; 0
     512:	90 e0       	ldi	r25, 0x00	; 0
     514:	0e 94 45 0d 	call	0x1a8a	; 0x1a8a <__floatsisf>
     518:	9b 01       	movw	r18, r22
     51a:	ac 01       	movw	r20, r24
     51c:	6a e0       	ldi	r22, 0x0A	; 10
     51e:	77 ed       	ldi	r23, 0xD7	; 215
     520:	83 e2       	ldi	r24, 0x23	; 35
     522:	94 e4       	ldi	r25, 0x44	; 68
     524:	0e 94 db 0c 	call	0x19b6	; 0x19b6 <__divsf3>
     528:	9f 93       	push	r25
     52a:	8f 93       	push	r24
     52c:	7f 93       	push	r23
     52e:	6f 93       	push	r22
     530:	1f 92       	push	r1
     532:	cf 93       	push	r28
     534:	83 ef       	ldi	r24, 0xF3	; 243
     536:	90 e0       	ldi	r25, 0x00	; 0
     538:	9f 93       	push	r25
     53a:	8f 93       	push	r24
     53c:	0e 94 86 10 	call	0x210c	; 0x210c <printf>
     540:	8d b7       	in	r24, 0x3d	; 61
     542:	9e b7       	in	r25, 0x3e	; 62
     544:	08 96       	adiw	r24, 0x08	; 8
     546:	0f b6       	in	r0, 0x3f	; 63
     548:	f8 94       	cli
     54a:	9e bf       	out	0x3e, r25	; 62
     54c:	0f be       	out	0x3f, r0	; 63
     54e:	8d bf       	out	0x3d, r24	; 61
     550:	8f ef       	ldi	r24, 0xFF	; 255
     552:	cf 91       	pop	r28
     554:	08 95       	ret
     556:	8d ed       	ldi	r24, 0xDD	; 221
     558:	90 e0       	ldi	r25, 0x00	; 0
     55a:	9f 93       	push	r25
     55c:	8f 93       	push	r24
     55e:	0e 94 86 10 	call	0x210c	; 0x210c <printf>
     562:	80 91 51 01 	lds	r24, 0x0151
     566:	60 e0       	ldi	r22, 0x00	; 0
     568:	0e 94 ce 03 	call	0x79c	; 0x79c <sys_printBin>
     56c:	0f 90       	pop	r0
     56e:	0f 90       	pop	r0
     570:	82 e0       	ldi	r24, 0x02	; 2
     572:	cf 91       	pop	r28
     574:	08 95       	ret
     576:	63 36       	cpi	r22, 0x63	; 99
     578:	d1 f0       	breq	.+52     	; 0x5ae <mon_printLine+0xb8>
     57a:	80 91 4a 01 	lds	r24, 0x014A
     57e:	90 91 4b 01 	lds	r25, 0x014B
     582:	9c 01       	movw	r18, r24
     584:	2f 5f       	subi	r18, 0xFF	; 255
     586:	3f 4f       	sbci	r19, 0xFF	; 255
     588:	30 93 4b 01 	sts	0x014B, r19
     58c:	20 93 4a 01 	sts	0x014A, r18
     590:	9f 93       	push	r25
     592:	8f 93       	push	r24
     594:	83 ee       	ldi	r24, 0xE3	; 227
     596:	90 e0       	ldi	r25, 0x00	; 0
     598:	9f 93       	push	r25
     59a:	8f 93       	push	r24
     59c:	0e 94 86 10 	call	0x210c	; 0x210c <printf>
     5a0:	0f 90       	pop	r0
     5a2:	0f 90       	pop	r0
     5a4:	0f 90       	pop	r0
     5a6:	0f 90       	pop	r0
     5a8:	82 e0       	ldi	r24, 0x02	; 2
     5aa:	cf 91       	pop	r28
     5ac:	08 95       	ret
     5ae:	21 e0       	ldi	r18, 0x01	; 1
     5b0:	30 e0       	ldi	r19, 0x00	; 0
     5b2:	80 e0       	ldi	r24, 0x00	; 0
     5b4:	90 e0       	ldi	r25, 0x00	; 0
     5b6:	e8 cf       	rjmp	.-48     	; 0x588 <mon_printLine+0x92>

000005b8 <sys_uart_getch>:
     5b8:	20 91 95 01 	lds	r18, 0x0195
     5bc:	30 91 96 01 	lds	r19, 0x0196
     5c0:	28 17       	cp	r18, r24
     5c2:	39 07       	cpc	r19, r25
     5c4:	c1 f4       	brne	.+48     	; 0x5f6 <sys_uart_getch+0x3e>
     5c6:	90 91 83 01 	lds	r25, 0x0183
     5ca:	80 91 82 01 	lds	r24, 0x0182
     5ce:	98 17       	cp	r25, r24
     5d0:	91 f0       	breq	.+36     	; 0x5f6 <sys_uart_getch+0x3e>
     5d2:	e0 91 82 01 	lds	r30, 0x0182
     5d6:	81 e0       	ldi	r24, 0x01	; 1
     5d8:	8e 0f       	add	r24, r30
     5da:	80 93 82 01 	sts	0x0182, r24
     5de:	f0 e0       	ldi	r31, 0x00	; 0
     5e0:	e1 58       	subi	r30, 0x81	; 129
     5e2:	fe 4f       	sbci	r31, 0xFE	; 254
     5e4:	86 81       	ldd	r24, Z+6	; 0x06
     5e6:	90 91 82 01 	lds	r25, 0x0182
     5ea:	90 31       	cpi	r25, 0x10	; 16
     5ec:	10 f0       	brcs	.+4      	; 0x5f2 <sys_uart_getch+0x3a>
     5ee:	10 92 82 01 	sts	0x0182, r1
     5f2:	90 e0       	ldi	r25, 0x00	; 0
     5f4:	08 95       	ret
     5f6:	8e ef       	ldi	r24, 0xFE	; 254
     5f8:	9f ef       	ldi	r25, 0xFF	; 255
     5fa:	08 95       	ret

000005fc <sys_uart_putch>:
     5fc:	20 91 97 01 	lds	r18, 0x0197
     600:	30 91 98 01 	lds	r19, 0x0198
     604:	26 17       	cp	r18, r22
     606:	37 07       	cpc	r19, r23
     608:	39 f4       	brne	.+14     	; 0x618 <sys_uart_putch+0x1c>
     60a:	5d 9b       	sbis	0x0b, 5	; 11
     60c:	fe cf       	rjmp	.-4      	; 0x60a <sys_uart_putch+0xe>
     60e:	8c b9       	out	0x0c, r24	; 12
     610:	99 27       	eor	r25, r25
     612:	87 fd       	sbrc	r24, 7
     614:	90 95       	com	r25
     616:	08 95       	ret
     618:	8e ef       	ldi	r24, 0xFE	; 254
     61a:	9f ef       	ldi	r25, 0xFF	; 255
     61c:	08 95       	ret

0000061e <sys_init>:
     61e:	86 e1       	ldi	r24, 0x16	; 22
     620:	ef e7       	ldi	r30, 0x7F	; 127
     622:	f1 e0       	ldi	r31, 0x01	; 1
     624:	df 01       	movw	r26, r30
     626:	1d 92       	st	X+, r1
     628:	8a 95       	dec	r24
     62a:	e9 f7       	brne	.-6      	; 0x626 <sys_init+0x8>
     62c:	bf e3       	ldi	r27, 0x3F	; 63
     62e:	2e e7       	ldi	r18, 0x7E	; 126
     630:	85 e0       	ldi	r24, 0x05	; 5
     632:	b1 50       	subi	r27, 0x01	; 1
     634:	20 40       	sbci	r18, 0x00	; 0
     636:	80 40       	sbci	r24, 0x00	; 0
     638:	e1 f7       	brne	.-8      	; 0x632 <sys_init+0x14>
     63a:	00 c0       	rjmp	.+0      	; 0x63c <sys_init+0x1e>
     63c:	00 00       	nop
     63e:	85 e9       	ldi	r24, 0x95	; 149
     640:	8c bf       	out	0x3c, r24	; 60
     642:	8a e0       	ldi	r24, 0x0A	; 10
     644:	83 bf       	out	0x33, r24	; 51
     646:	82 e0       	ldi	r24, 0x02	; 2
     648:	89 bf       	out	0x39, r24	; 57
     64a:	88 bf       	out	0x38, r24	; 56
     64c:	8c e0       	ldi	r24, 0x0C	; 12
     64e:	89 b9       	out	0x09, r24	; 9
     650:	10 bc       	out	0x20, r1	; 32
     652:	1b b8       	out	0x0b, r1	; 11
     654:	86 e8       	ldi	r24, 0x86	; 134
     656:	80 bd       	out	0x20, r24	; 32
     658:	88 e9       	ldi	r24, 0x98	; 152
     65a:	8a b9       	out	0x0a, r24	; 10
     65c:	8f e0       	ldi	r24, 0x0F	; 15
     65e:	8b bb       	out	0x1b, r24	; 27
     660:	8a bb       	out	0x1a, r24	; 26
     662:	84 b3       	in	r24, 0x14	; 20
     664:	8f 73       	andi	r24, 0x3F	; 63
     666:	84 bb       	out	0x14, r24	; 20
     668:	8e e6       	ldi	r24, 0x6E	; 110
     66a:	90 e0       	ldi	r25, 0x00	; 0
     66c:	90 93 98 01 	sts	0x0198, r25
     670:	80 93 97 01 	sts	0x0197, r24
     674:	80 e6       	ldi	r24, 0x60	; 96
     676:	90 e0       	ldi	r25, 0x00	; 0
     678:	90 93 96 01 	sts	0x0196, r25
     67c:	80 93 95 01 	sts	0x0195, r24
     680:	08 95       	ret

00000682 <sys_inc8BitCnt>:
     682:	8f 3f       	cpi	r24, 0xFF	; 255
     684:	11 f0       	breq	.+4      	; 0x68a <sys_inc8BitCnt+0x8>
     686:	8f 5f       	subi	r24, 0xFF	; 255
     688:	08 95       	ret
     68a:	8f ef       	ldi	r24, 0xFF	; 255
     68c:	08 95       	ret

0000068e <sys_inc16BitCnt>:
     68e:	8f 3f       	cpi	r24, 0xFF	; 255
     690:	2f ef       	ldi	r18, 0xFF	; 255
     692:	92 07       	cpc	r25, r18
     694:	11 f0       	breq	.+4      	; 0x69a <sys_inc16BitCnt+0xc>
     696:	01 96       	adiw	r24, 0x01	; 1
     698:	08 95       	ret
     69a:	8f ef       	ldi	r24, 0xFF	; 255
     69c:	9f ef       	ldi	r25, 0xFF	; 255
     69e:	08 95       	ret

000006a0 <sys_sei>:
     6a0:	80 91 7f 01 	lds	r24, 0x017F
     6a4:	87 ff       	sbrs	r24, 7
     6a6:	08 95       	ret
     6a8:	78 94       	sei
     6aa:	08 95       	ret

000006ac <sys_cli>:
     6ac:	ef e7       	ldi	r30, 0x7F	; 127
     6ae:	f1 e0       	ldi	r31, 0x01	; 1
     6b0:	90 81       	ld	r25, Z
     6b2:	8f b7       	in	r24, 0x3f	; 63
     6b4:	80 78       	andi	r24, 0x80	; 128
     6b6:	89 2b       	or	r24, r25
     6b8:	80 83       	st	Z, r24
     6ba:	f8 94       	cli
     6bc:	08 95       	ret

000006be <sys_newline>:
     6be:	87 e4       	ldi	r24, 0x47	; 71
     6c0:	91 e0       	ldi	r25, 0x01	; 1
     6c2:	9f 93       	push	r25
     6c4:	8f 93       	push	r24
     6c6:	0e 94 86 10 	call	0x210c	; 0x210c <printf>
     6ca:	0f 90       	pop	r0
     6cc:	0f 90       	pop	r0
     6ce:	08 95       	ret

000006d0 <sys_printString_P>:
     6d0:	0f 93       	push	r16
     6d2:	1f 93       	push	r17
     6d4:	cf 93       	push	r28
     6d6:	df 93       	push	r29
     6d8:	1f 92       	push	r1
     6da:	cd b7       	in	r28, 0x3d	; 61
     6dc:	de b7       	in	r29, 0x3e	; 62
     6de:	bc 01       	movw	r22, r24
     6e0:	0a c0       	rjmp	.+20     	; 0x6f6 <sys_printString_P+0x26>
     6e2:	60 91 97 01 	lds	r22, 0x0197
     6e6:	70 91 98 01 	lds	r23, 0x0198
     6ea:	99 27       	eor	r25, r25
     6ec:	87 fd       	sbrc	r24, 7
     6ee:	90 95       	com	r25
     6f0:	0e 94 54 10 	call	0x20a8	; 0x20a8 <fputc>
     6f4:	b8 01       	movw	r22, r16
     6f6:	8b 01       	movw	r16, r22
     6f8:	0f 5f       	subi	r16, 0xFF	; 255
     6fa:	1f 4f       	sbci	r17, 0xFF	; 255
     6fc:	41 e0       	ldi	r20, 0x01	; 1
     6fe:	50 e0       	ldi	r21, 0x00	; 0
     700:	ce 01       	movw	r24, r28
     702:	01 96       	adiw	r24, 0x01	; 1
     704:	0e 94 e5 0f 	call	0x1fca	; 0x1fca <memcpy_P>
     708:	89 81       	ldd	r24, Y+1	; 0x01
     70a:	81 11       	cpse	r24, r1
     70c:	ea cf       	rjmp	.-44     	; 0x6e2 <sys_printString_P+0x12>
     70e:	0f 90       	pop	r0
     710:	df 91       	pop	r29
     712:	cf 91       	pop	r28
     714:	1f 91       	pop	r17
     716:	0f 91       	pop	r16
     718:	08 95       	ret

0000071a <sys_puts_P>:
     71a:	0e 94 68 03 	call	0x6d0	; 0x6d0 <sys_printString_P>
     71e:	87 e4       	ldi	r24, 0x47	; 71
     720:	91 e0       	ldi	r25, 0x01	; 1
     722:	9f 93       	push	r25
     724:	8f 93       	push	r24
     726:	0e 94 86 10 	call	0x210c	; 0x210c <printf>
     72a:	0f 90       	pop	r0
     72c:	0f 90       	pop	r0
     72e:	08 95       	ret

00000730 <sys_getByte>:
     730:	cf 93       	push	r28
     732:	df 93       	push	r29
     734:	1f 92       	push	r1
     736:	cd b7       	in	r28, 0x3d	; 61
     738:	de b7       	in	r29, 0x3e	; 62
     73a:	19 82       	std	Y+1, r1	; 0x01
     73c:	86 36       	cpi	r24, 0x66	; 102
     73e:	f1 f0       	breq	.+60     	; 0x77c <sys_getByte+0x4c>
     740:	83 37       	cpi	r24, 0x73	; 115
     742:	89 f0       	breq	.+34     	; 0x766 <sys_getByte+0x36>
     744:	85 36       	cpi	r24, 0x65	; 101
     746:	31 f0       	breq	.+12     	; 0x754 <sys_getByte+0x24>
     748:	8f ef       	ldi	r24, 0xFF	; 255
     74a:	9f ef       	ldi	r25, 0xFF	; 255
     74c:	0f 90       	pop	r0
     74e:	df 91       	pop	r29
     750:	cf 91       	pop	r28
     752:	08 95       	ret
     754:	61 15       	cp	r22, r1
     756:	72 40       	sbci	r23, 0x02	; 2
     758:	b8 f7       	brcc	.-18     	; 0x748 <sys_getByte+0x18>
     75a:	80 e0       	ldi	r24, 0x00	; 0
     75c:	90 e0       	ldi	r25, 0x00	; 0
     75e:	0f 90       	pop	r0
     760:	df 91       	pop	r29
     762:	cf 91       	pop	r28
     764:	08 95       	ret
     766:	60 36       	cpi	r22, 0x60	; 96
     768:	e4 e0       	ldi	r30, 0x04	; 4
     76a:	7e 07       	cpc	r23, r30
     76c:	68 f7       	brcc	.-38     	; 0x748 <sys_getByte+0x18>
     76e:	fb 01       	movw	r30, r22
     770:	80 81       	ld	r24, Z
     772:	90 e0       	ldi	r25, 0x00	; 0
     774:	0f 90       	pop	r0
     776:	df 91       	pop	r29
     778:	cf 91       	pop	r28
     77a:	08 95       	ret
     77c:	61 15       	cp	r22, r1
     77e:	80 e4       	ldi	r24, 0x40	; 64
     780:	78 07       	cpc	r23, r24
     782:	10 f7       	brcc	.-60     	; 0x748 <sys_getByte+0x18>
     784:	41 e0       	ldi	r20, 0x01	; 1
     786:	50 e0       	ldi	r21, 0x00	; 0
     788:	ce 01       	movw	r24, r28
     78a:	01 96       	adiw	r24, 0x01	; 1
     78c:	0e 94 e5 0f 	call	0x1fca	; 0x1fca <memcpy_P>
     790:	89 81       	ldd	r24, Y+1	; 0x01
     792:	90 e0       	ldi	r25, 0x00	; 0
     794:	0f 90       	pop	r0
     796:	df 91       	pop	r29
     798:	cf 91       	pop	r28
     79a:	08 95       	ret

0000079c <sys_printBin>:
     79c:	cf 92       	push	r12
     79e:	df 92       	push	r13
     7a0:	ef 92       	push	r14
     7a2:	ff 92       	push	r15
     7a4:	1f 93       	push	r17
     7a6:	cf 93       	push	r28
     7a8:	df 93       	push	r29
     7aa:	f8 2e       	mov	r15, r24
     7ac:	e6 2e       	mov	r14, r22
     7ae:	11 e0       	ldi	r17, 0x01	; 1
     7b0:	c1 e3       	ldi	r28, 0x31	; 49
     7b2:	d0 e0       	ldi	r29, 0x00	; 0
     7b4:	c6 2e       	mov	r12, r22
     7b6:	dd 24       	eor	r13, r13
     7b8:	c7 fc       	sbrc	r12, 7
     7ba:	d0 94       	com	r13
     7bc:	60 91 97 01 	lds	r22, 0x0197
     7c0:	70 91 98 01 	lds	r23, 0x0198
     7c4:	2f 2d       	mov	r18, r15
     7c6:	33 27       	eor	r19, r19
     7c8:	27 fd       	sbrc	r18, 7
     7ca:	30 95       	com	r19
     7cc:	20 95       	com	r18
     7ce:	30 95       	com	r19
     7d0:	22 27       	eor	r18, r18
     7d2:	33 0f       	add	r19, r19
     7d4:	22 1f       	adc	r18, r18
     7d6:	33 27       	eor	r19, r19
     7d8:	ce 01       	movw	r24, r28
     7da:	82 1b       	sub	r24, r18
     7dc:	93 0b       	sbc	r25, r19
     7de:	0e 94 54 10 	call	0x20a8	; 0x20a8 <fputc>
     7e2:	14 30       	cpi	r17, 0x04	; 4
     7e4:	69 f0       	breq	.+26     	; 0x800 <sys_printBin+0x64>
     7e6:	ff 0c       	add	r15, r15
     7e8:	18 30       	cpi	r17, 0x08	; 8
     7ea:	11 f0       	breq	.+4      	; 0x7f0 <sys_printBin+0x54>
     7ec:	1f 5f       	subi	r17, 0xFF	; 255
     7ee:	e6 cf       	rjmp	.-52     	; 0x7bc <sys_printBin+0x20>
     7f0:	df 91       	pop	r29
     7f2:	cf 91       	pop	r28
     7f4:	1f 91       	pop	r17
     7f6:	ff 90       	pop	r15
     7f8:	ef 90       	pop	r14
     7fa:	df 90       	pop	r13
     7fc:	cf 90       	pop	r12
     7fe:	08 95       	ret
     800:	e1 10       	cpse	r14, r1
     802:	03 c0       	rjmp	.+6      	; 0x80a <sys_printBin+0x6e>
     804:	ff 0c       	add	r15, r15
     806:	1f 5f       	subi	r17, 0xFF	; 255
     808:	d9 cf       	rjmp	.-78     	; 0x7bc <sys_printBin+0x20>
     80a:	60 91 97 01 	lds	r22, 0x0197
     80e:	70 91 98 01 	lds	r23, 0x0198
     812:	c6 01       	movw	r24, r12
     814:	0e 94 54 10 	call	0x20a8	; 0x20a8 <fputc>
     818:	ff 0c       	add	r15, r15
     81a:	f5 cf       	rjmp	.-22     	; 0x806 <sys_printBin+0x6a>

0000081c <sys_printHexBin8>:
     81c:	cf 93       	push	r28
     81e:	c8 2f       	mov	r28, r24
     820:	1f 92       	push	r1
     822:	8f 93       	push	r24
     824:	26 e0       	ldi	r18, 0x06	; 6
     826:	31 e0       	ldi	r19, 0x01	; 1
     828:	3f 93       	push	r19
     82a:	2f 93       	push	r18
     82c:	0e 94 86 10 	call	0x210c	; 0x210c <printf>
     830:	60 e2       	ldi	r22, 0x20	; 32
     832:	8c 2f       	mov	r24, r28
     834:	0e 94 ce 03 	call	0x79c	; 0x79c <sys_printBin>
     838:	0f 90       	pop	r0
     83a:	0f 90       	pop	r0
     83c:	0f 90       	pop	r0
     83e:	0f 90       	pop	r0
     840:	60 91 97 01 	lds	r22, 0x0197
     844:	70 91 98 01 	lds	r23, 0x0198
     848:	89 e2       	ldi	r24, 0x29	; 41
     84a:	90 e0       	ldi	r25, 0x00	; 0
     84c:	cf 91       	pop	r28
     84e:	0c 94 54 10 	jmp	0x20a8	; 0x20a8 <fputc>

00000852 <sys_cmd_sinfo>:
     852:	cf 93       	push	r28
     854:	df 93       	push	r29
     856:	8f e0       	ldi	r24, 0x0F	; 15
     858:	91 e0       	ldi	r25, 0x01	; 1
     85a:	9f 93       	push	r25
     85c:	8f 93       	push	r24
     85e:	0e 94 86 10 	call	0x210c	; 0x210c <printf>
     862:	80 91 7f 01 	lds	r24, 0x017F
     866:	0e 94 0e 04 	call	0x81c	; 0x81c <sys_printHexBin8>
     86a:	c7 e4       	ldi	r28, 0x47	; 71
     86c:	d1 e0       	ldi	r29, 0x01	; 1
     86e:	df 93       	push	r29
     870:	cf 93       	push	r28
     872:	0e 94 86 10 	call	0x210c	; 0x210c <printf>
     876:	80 e2       	ldi	r24, 0x20	; 32
     878:	91 e0       	ldi	r25, 0x01	; 1
     87a:	9f 93       	push	r25
     87c:	8f 93       	push	r24
     87e:	0e 94 86 10 	call	0x210c	; 0x210c <printf>
     882:	80 91 80 01 	lds	r24, 0x0180
     886:	0e 94 0e 04 	call	0x81c	; 0x81c <sys_printHexBin8>
     88a:	df 93       	push	r29
     88c:	cf 93       	push	r28
     88e:	0e 94 86 10 	call	0x210c	; 0x210c <printf>
     892:	8d b7       	in	r24, 0x3d	; 61
     894:	9e b7       	in	r25, 0x3e	; 62
     896:	08 96       	adiw	r24, 0x08	; 8
     898:	0f b6       	in	r0, 0x3f	; 63
     89a:	f8 94       	cli
     89c:	9e bf       	out	0x3e, r25	; 62
     89e:	0f be       	out	0x3f, r0	; 63
     8a0:	8d bf       	out	0x3d, r24	; 61
     8a2:	80 e0       	ldi	r24, 0x00	; 0
     8a4:	df 91       	pop	r29
     8a6:	cf 91       	pop	r28
     8a8:	08 95       	ret

000008aa <sys_printHexBin16>:
     8aa:	1f 93       	push	r17
     8ac:	cf 93       	push	r28
     8ae:	df 93       	push	r29
     8b0:	18 2f       	mov	r17, r24
     8b2:	c9 2f       	mov	r28, r25
     8b4:	9f 93       	push	r25
     8b6:	8f 93       	push	r24
     8b8:	21 e3       	ldi	r18, 0x31	; 49
     8ba:	31 e0       	ldi	r19, 0x01	; 1
     8bc:	3f 93       	push	r19
     8be:	2f 93       	push	r18
     8c0:	0e 94 86 10 	call	0x210c	; 0x210c <printf>
     8c4:	60 e2       	ldi	r22, 0x20	; 32
     8c6:	8c 2f       	mov	r24, r28
     8c8:	0e 94 ce 03 	call	0x79c	; 0x79c <sys_printBin>
     8cc:	c7 e9       	ldi	r28, 0x97	; 151
     8ce:	d1 e0       	ldi	r29, 0x01	; 1
     8d0:	68 81       	ld	r22, Y
     8d2:	79 81       	ldd	r23, Y+1	; 0x01
     8d4:	80 e2       	ldi	r24, 0x20	; 32
     8d6:	90 e0       	ldi	r25, 0x00	; 0
     8d8:	0e 94 54 10 	call	0x20a8	; 0x20a8 <fputc>
     8dc:	60 e2       	ldi	r22, 0x20	; 32
     8de:	81 2f       	mov	r24, r17
     8e0:	0e 94 ce 03 	call	0x79c	; 0x79c <sys_printBin>
     8e4:	0f 90       	pop	r0
     8e6:	0f 90       	pop	r0
     8e8:	0f 90       	pop	r0
     8ea:	0f 90       	pop	r0
     8ec:	68 81       	ld	r22, Y
     8ee:	79 81       	ldd	r23, Y+1	; 0x01
     8f0:	89 e2       	ldi	r24, 0x29	; 41
     8f2:	90 e0       	ldi	r25, 0x00	; 0
     8f4:	df 91       	pop	r29
     8f6:	cf 91       	pop	r28
     8f8:	1f 91       	pop	r17
     8fa:	0c 94 54 10 	jmp	0x20a8	; 0x20a8 <fputc>

000008fe <sys_readArgument>:
     8fe:	cf 93       	push	r28
     900:	df 93       	push	r29
     902:	eb 01       	movw	r28, r22
     904:	fc 01       	movw	r30, r24
     906:	20 81       	ld	r18, Z
     908:	20 33       	cpi	r18, 0x30	; 48
     90a:	69 f0       	breq	.+26     	; 0x926 <sys_readArgument+0x28>
     90c:	4a e0       	ldi	r20, 0x0A	; 10
     90e:	50 e0       	ldi	r21, 0x00	; 0
     910:	60 e0       	ldi	r22, 0x00	; 0
     912:	70 e0       	ldi	r23, 0x00	; 0
     914:	0e 94 d1 0d 	call	0x1ba2	; 0x1ba2 <strtol>
     918:	c6 17       	cp	r28, r22
     91a:	d7 07       	cpc	r29, r23
     91c:	74 f0       	brlt	.+28     	; 0x93a <sys_readArgument+0x3c>
     91e:	cb 01       	movw	r24, r22
     920:	df 91       	pop	r29
     922:	cf 91       	pop	r28
     924:	08 95       	ret
     926:	21 81       	ldd	r18, Z+1	; 0x01
     928:	28 37       	cpi	r18, 0x78	; 120
     92a:	81 f7       	brne	.-32     	; 0x90c <sys_readArgument+0xe>
     92c:	40 e1       	ldi	r20, 0x10	; 16
     92e:	50 e0       	ldi	r21, 0x00	; 0
     930:	60 e0       	ldi	r22, 0x00	; 0
     932:	70 e0       	ldi	r23, 0x00	; 0
     934:	0e 94 d1 0d 	call	0x1ba2	; 0x1ba2 <strtol>
     938:	ef cf       	rjmp	.-34     	; 0x918 <sys_readArgument+0x1a>
     93a:	8f ef       	ldi	r24, 0xFF	; 255
     93c:	9f ef       	ldi	r25, 0xFF	; 255
     93e:	f0 cf       	rjmp	.-32     	; 0x920 <sys_readArgument+0x22>

00000940 <sys_uart_available>:
     940:	90 91 83 01 	lds	r25, 0x0183
     944:	80 91 82 01 	lds	r24, 0x0182
     948:	98 17       	cp	r25, r24
     94a:	38 f4       	brcc	.+14     	; 0x95a <sys_uart_available+0x1a>
     94c:	80 91 83 01 	lds	r24, 0x0183
     950:	90 91 82 01 	lds	r25, 0x0182
     954:	80 5f       	subi	r24, 0xF0	; 240
     956:	89 1b       	sub	r24, r25
     958:	08 95       	ret
     95a:	80 91 83 01 	lds	r24, 0x0183
     95e:	90 91 82 01 	lds	r25, 0x0182
     962:	89 1b       	sub	r24, r25
     964:	08 95       	ret

00000966 <sys_uart_getBufferByte>:
     966:	cf 93       	push	r28
     968:	c8 2f       	mov	r28, r24
     96a:	80 91 7f 01 	lds	r24, 0x017F
     96e:	9f b7       	in	r25, 0x3f	; 63
     970:	90 78       	andi	r25, 0x80	; 128
     972:	98 2b       	or	r25, r24
     974:	90 93 7f 01 	sts	0x017F, r25
     978:	f8 94       	cli
     97a:	0e 94 a0 04 	call	0x940	; 0x940 <sys_uart_available>
     97e:	c8 17       	cp	r28, r24
     980:	98 f4       	brcc	.+38     	; 0x9a8 <sys_uart_getBufferByte+0x42>
     982:	e0 91 82 01 	lds	r30, 0x0182
     986:	ec 0f       	add	r30, r28
     988:	e0 31       	cpi	r30, 0x10	; 16
     98a:	60 f4       	brcc	.+24     	; 0x9a4 <sys_uart_getBufferByte+0x3e>
     98c:	f0 e0       	ldi	r31, 0x00	; 0
     98e:	e1 58       	subi	r30, 0x81	; 129
     990:	fe 4f       	sbci	r31, 0xFE	; 254
     992:	86 81       	ldd	r24, Z+6	; 0x06
     994:	90 e0       	ldi	r25, 0x00	; 0
     996:	20 91 7f 01 	lds	r18, 0x017F
     99a:	27 ff       	sbrs	r18, 7
     99c:	01 c0       	rjmp	.+2      	; 0x9a0 <sys_uart_getBufferByte+0x3a>
     99e:	78 94       	sei
     9a0:	cf 91       	pop	r28
     9a2:	08 95       	ret
     9a4:	e0 51       	subi	r30, 0x10	; 16
     9a6:	f2 cf       	rjmp	.-28     	; 0x98c <sys_uart_getBufferByte+0x26>
     9a8:	8f ef       	ldi	r24, 0xFF	; 255
     9aa:	9f ef       	ldi	r25, 0xFF	; 255
     9ac:	f4 cf       	rjmp	.-24     	; 0x996 <sys_uart_getBufferByte+0x30>

000009ae <sys_uart_flush>:
     9ae:	90 91 7f 01 	lds	r25, 0x017F
     9b2:	8f b7       	in	r24, 0x3f	; 63
     9b4:	80 78       	andi	r24, 0x80	; 128
     9b6:	89 2b       	or	r24, r25
     9b8:	80 93 7f 01 	sts	0x017F, r24
     9bc:	f8 94       	cli
     9be:	5f 9b       	sbis	0x0b, 7	; 11
     9c0:	05 c0       	rjmp	.+10     	; 0x9cc <sys_uart_flush+0x1e>
     9c2:	8c b1       	in	r24, 0x0c	; 12
     9c4:	80 93 85 01 	sts	0x0185, r24
     9c8:	5f 99       	sbic	0x0b, 7	; 11
     9ca:	fb cf       	rjmp	.-10     	; 0x9c2 <sys_uart_flush+0x14>
     9cc:	10 92 82 01 	sts	0x0182, r1
     9d0:	10 92 83 01 	sts	0x0183, r1
     9d4:	10 92 84 01 	sts	0x0184, r1
     9d8:	80 91 7f 01 	lds	r24, 0x017F
     9dc:	87 ff       	sbrs	r24, 7
     9de:	08 95       	ret
     9e0:	78 94       	sei
     9e2:	08 95       	ret

000009e4 <sys_setEvent>:
     9e4:	20 91 7f 01 	lds	r18, 0x017F
     9e8:	9f b7       	in	r25, 0x3f	; 63
     9ea:	90 78       	andi	r25, 0x80	; 128
     9ec:	92 2b       	or	r25, r18
     9ee:	90 93 7f 01 	sts	0x017F, r25
     9f2:	f8 94       	cli
     9f4:	90 91 81 01 	lds	r25, 0x0181
     9f8:	98 23       	and	r25, r24
     9fa:	21 e0       	ldi	r18, 0x01	; 1
     9fc:	09 f4       	brne	.+2      	; 0xa00 <sys_setEvent+0x1c>
     9fe:	20 e0       	ldi	r18, 0x00	; 0
     a00:	90 91 81 01 	lds	r25, 0x0181
     a04:	98 2b       	or	r25, r24
     a06:	90 93 81 01 	sts	0x0181, r25
     a0a:	80 91 7f 01 	lds	r24, 0x017F
     a0e:	87 ff       	sbrs	r24, 7
     a10:	01 c0       	rjmp	.+2      	; 0xa14 <sys_setEvent+0x30>
     a12:	78 94       	sei
     a14:	82 2f       	mov	r24, r18
     a16:	08 95       	ret

00000a18 <sys_clearEvent>:
     a18:	20 91 7f 01 	lds	r18, 0x017F
     a1c:	9f b7       	in	r25, 0x3f	; 63
     a1e:	90 78       	andi	r25, 0x80	; 128
     a20:	92 2b       	or	r25, r18
     a22:	90 93 7f 01 	sts	0x017F, r25
     a26:	f8 94       	cli
     a28:	20 91 81 01 	lds	r18, 0x0181
     a2c:	28 23       	and	r18, r24
     a2e:	31 e0       	ldi	r19, 0x01	; 1
     a30:	09 f4       	brne	.+2      	; 0xa34 <sys_clearEvent+0x1c>
     a32:	30 e0       	ldi	r19, 0x00	; 0
     a34:	20 91 81 01 	lds	r18, 0x0181
     a38:	98 2f       	mov	r25, r24
     a3a:	90 95       	com	r25
     a3c:	92 23       	and	r25, r18
     a3e:	90 93 81 01 	sts	0x0181, r25
     a42:	80 91 7f 01 	lds	r24, 0x017F
     a46:	87 ff       	sbrs	r24, 7
     a48:	01 c0       	rjmp	.+2      	; 0xa4c <sys_clearEvent+0x34>
     a4a:	78 94       	sei
     a4c:	83 2f       	mov	r24, r19
     a4e:	08 95       	ret

00000a50 <sys_isEventPending>:
     a50:	90 91 81 01 	lds	r25, 0x0181
     a54:	98 23       	and	r25, r24
     a56:	81 e0       	ldi	r24, 0x01	; 1
     a58:	09 f4       	brne	.+2      	; 0xa5c <sys_isEventPending+0xc>
     a5a:	80 e0       	ldi	r24, 0x00	; 0
     a5c:	08 95       	ret

00000a5e <sys_setAllLeds>:
     a5e:	81 11       	cpse	r24, r1
     a60:	04 c0       	rjmp	.+8      	; 0xa6a <sys_setAllLeds+0xc>
     a62:	8f e0       	ldi	r24, 0x0F	; 15
     a64:	8b bb       	out	0x1b, r24	; 27
     a66:	18 ba       	out	0x18, r1	; 24
     a68:	08 95       	ret
     a6a:	80 ef       	ldi	r24, 0xF0	; 240
     a6c:	8b bb       	out	0x1b, r24	; 27
     a6e:	8f ef       	ldi	r24, 0xFF	; 255
     a70:	88 bb       	out	0x18, r24	; 24
     a72:	08 95       	ret

00000a74 <sys_setLed>:
     a74:	84 30       	cpi	r24, 0x04	; 4
     a76:	60 f4       	brcc	.+24     	; 0xa90 <sys_setLed+0x1c>
     a78:	9b b3       	in	r25, 0x1b	; 27
     a7a:	21 e0       	ldi	r18, 0x01	; 1
     a7c:	30 e0       	ldi	r19, 0x00	; 0
     a7e:	08 2e       	mov	r0, r24
     a80:	01 c0       	rjmp	.+2      	; 0xa84 <sys_setLed+0x10>
     a82:	22 0f       	add	r18, r18
     a84:	0a 94       	dec	r0
     a86:	ea f7       	brpl	.-6      	; 0xa82 <sys_setLed+0xe>
     a88:	61 11       	cpse	r22, r1
     a8a:	03 c0       	rjmp	.+6      	; 0xa92 <sys_setLed+0x1e>
     a8c:	92 2b       	or	r25, r18
     a8e:	9b bb       	out	0x1b, r25	; 27
     a90:	08 95       	ret
     a92:	20 95       	com	r18
     a94:	29 23       	and	r18, r25
     a96:	2b bb       	out	0x1b, r18	; 27
     a98:	08 95       	ret

00000a9a <sys_toggleLed>:
     a9a:	84 30       	cpi	r24, 0x04	; 4
     a9c:	50 f4       	brcc	.+20     	; 0xab2 <sys_toggleLed+0x18>
     a9e:	9b b3       	in	r25, 0x1b	; 27
     aa0:	21 e0       	ldi	r18, 0x01	; 1
     aa2:	30 e0       	ldi	r19, 0x00	; 0
     aa4:	08 2e       	mov	r0, r24
     aa6:	01 c0       	rjmp	.+2      	; 0xaaa <sys_toggleLed+0x10>
     aa8:	22 0f       	add	r18, r18
     aaa:	0a 94       	dec	r0
     aac:	ea f7       	brpl	.-6      	; 0xaa8 <sys_toggleLed+0xe>
     aae:	92 27       	eor	r25, r18
     ab0:	9b bb       	out	0x1b, r25	; 27
     ab2:	08 95       	ret

00000ab4 <sys_getMonCmdInfo>:
     ab4:	1f 93       	push	r17
     ab6:	cf 93       	push	r28
     ab8:	df 93       	push	r29
     aba:	00 d0       	rcall	.+0      	; 0xabc <sys_getMonCmdInfo+0x8>
     abc:	00 d0       	rcall	.+0      	; 0xabe <sys_getMonCmdInfo+0xa>
     abe:	cd b7       	in	r28, 0x3d	; 61
     ac0:	de b7       	in	r29, 0x3e	; 62
     ac2:	1a 82       	std	Y+2, r1	; 0x02
     ac4:	19 82       	std	Y+1, r1	; 0x01
     ac6:	1c 82       	std	Y+4, r1	; 0x04
     ac8:	1b 82       	std	Y+3, r1	; 0x03
     aca:	82 30       	cpi	r24, 0x02	; 2
     acc:	00 f1       	brcs	.+64     	; 0xb0e <sys_getMonCmdInfo+0x5a>
     ace:	1e ef       	ldi	r17, 0xFE	; 254
     ad0:	18 0f       	add	r17, r24
     ad2:	0e 94 47 02 	call	0x48e	; 0x48e <mon_getCmdCount>
     ad6:	18 17       	cp	r17, r24
     ad8:	70 f4       	brcc	.+28     	; 0xaf6 <sys_getMonCmdInfo+0x42>
     ada:	61 2f       	mov	r22, r17
     adc:	70 e0       	ldi	r23, 0x00	; 0
     ade:	66 0f       	add	r22, r22
     ae0:	77 1f       	adc	r23, r23
     ae2:	66 0f       	add	r22, r22
     ae4:	77 1f       	adc	r23, r23
     ae6:	68 58       	subi	r22, 0x88	; 136
     ae8:	7f 4f       	sbci	r23, 0xFF	; 255
     aea:	44 e0       	ldi	r20, 0x04	; 4
     aec:	50 e0       	ldi	r21, 0x00	; 0
     aee:	ce 01       	movw	r24, r28
     af0:	01 96       	adiw	r24, 0x01	; 1
     af2:	0e 94 e5 0f 	call	0x1fca	; 0x1fca <memcpy_P>
     af6:	69 81       	ldd	r22, Y+1	; 0x01
     af8:	7a 81       	ldd	r23, Y+2	; 0x02
     afa:	8b 81       	ldd	r24, Y+3	; 0x03
     afc:	9c 81       	ldd	r25, Y+4	; 0x04
     afe:	0f 90       	pop	r0
     b00:	0f 90       	pop	r0
     b02:	0f 90       	pop	r0
     b04:	0f 90       	pop	r0
     b06:	df 91       	pop	r29
     b08:	cf 91       	pop	r28
     b0a:	1f 91       	pop	r17
     b0c:	08 95       	ret
     b0e:	68 2f       	mov	r22, r24
     b10:	70 e0       	ldi	r23, 0x00	; 0
     b12:	66 0f       	add	r22, r22
     b14:	77 1f       	adc	r23, r23
     b16:	66 0f       	add	r22, r22
     b18:	77 1f       	adc	r23, r23
     b1a:	6d 5f       	subi	r22, 0xFD	; 253
     b1c:	7e 4f       	sbci	r23, 0xFE	; 254
     b1e:	e5 cf       	rjmp	.-54     	; 0xaea <sys_getMonCmdInfo+0x36>

00000b20 <sys_cmd_help>:
     b20:	8f 92       	push	r8
     b22:	9f 92       	push	r9
     b24:	af 92       	push	r10
     b26:	bf 92       	push	r11
     b28:	cf 92       	push	r12
     b2a:	df 92       	push	r13
     b2c:	ef 92       	push	r14
     b2e:	ff 92       	push	r15
     b30:	0f 93       	push	r16
     b32:	1f 93       	push	r17
     b34:	cf 93       	push	r28
     b36:	df 93       	push	r29
     b38:	c0 e0       	ldi	r28, 0x00	; 0
     b3a:	80 e0       	ldi	r24, 0x00	; 0
     b3c:	d1 e0       	ldi	r29, 0x01	; 1
     b3e:	d8 0f       	add	r29, r24
     b40:	0e 94 5a 05 	call	0xab4	; 0xab4 <sys_getMonCmdInfo>
     b44:	89 2b       	or	r24, r25
     b46:	69 f0       	breq	.+26     	; 0xb62 <sys_cmd_help+0x42>
     b48:	cb 01       	movw	r24, r22
     b4a:	0e 94 f7 0f 	call	0x1fee	; 0x1fee <__strlen_P>
     b4e:	c8 17       	cp	r28, r24
     b50:	08 f4       	brcc	.+2      	; 0xb54 <sys_cmd_help+0x34>
     b52:	c8 2f       	mov	r28, r24
     b54:	8d 2f       	mov	r24, r29
     b56:	d1 e0       	ldi	r29, 0x01	; 1
     b58:	d8 0f       	add	r29, r24
     b5a:	0e 94 5a 05 	call	0xab4	; 0xab4 <sys_getMonCmdInfo>
     b5e:	89 2b       	or	r24, r25
     b60:	99 f7       	brne	.-26     	; 0xb48 <sys_cmd_help+0x28>
     b62:	91 2c       	mov	r9, r1
     b64:	d0 e0       	ldi	r29, 0x00	; 0
     b66:	21 96       	adiw	r28, 0x01	; 1
     b68:	37 e4       	ldi	r19, 0x47	; 71
     b6a:	a3 2e       	mov	r10, r19
     b6c:	31 e0       	ldi	r19, 0x01	; 1
     b6e:	b3 2e       	mov	r11, r19
     b70:	89 2d       	mov	r24, r9
     b72:	0e 94 5a 05 	call	0xab4	; 0xab4 <sys_getMonCmdInfo>
     b76:	6b 01       	movw	r12, r22
     b78:	7c 01       	movw	r14, r24
     b7a:	ef 28       	or	r14, r15
     b7c:	71 f1       	breq	.+92     	; 0xbda <sys_cmd_help+0xba>
     b7e:	cb 01       	movw	r24, r22
     b80:	0e 94 68 03 	call	0x6d0	; 0x6d0 <sys_printString_P>
     b84:	c6 01       	movw	r24, r12
     b86:	0e 94 f7 0f 	call	0x1fee	; 0x1fee <__strlen_P>
     b8a:	8c 01       	movw	r16, r24
     b8c:	88 2e       	mov	r8, r24
     b8e:	99 27       	eor	r25, r25
     b90:	c8 17       	cp	r28, r24
     b92:	d9 07       	cpc	r29, r25
     b94:	74 f0       	brlt	.+28     	; 0xbb2 <sys_cmd_help+0x92>
     b96:	60 91 97 01 	lds	r22, 0x0197
     b9a:	70 91 98 01 	lds	r23, 0x0198
     b9e:	80 e2       	ldi	r24, 0x20	; 32
     ba0:	90 e0       	ldi	r25, 0x00	; 0
     ba2:	0e 94 54 10 	call	0x20a8	; 0x20a8 <fputc>
     ba6:	83 94       	inc	r8
     ba8:	28 2d       	mov	r18, r8
     baa:	30 e0       	ldi	r19, 0x00	; 0
     bac:	c2 17       	cp	r28, r18
     bae:	d3 07       	cpc	r29, r19
     bb0:	94 f7       	brge	.-28     	; 0xb96 <sys_cmd_help+0x76>
     bb2:	93 94       	inc	r9
     bb4:	c8 01       	movw	r24, r16
     bb6:	01 96       	adiw	r24, 0x01	; 1
     bb8:	8c 0d       	add	r24, r12
     bba:	9d 1d       	adc	r25, r13
     bbc:	0e 94 68 03 	call	0x6d0	; 0x6d0 <sys_printString_P>
     bc0:	bf 92       	push	r11
     bc2:	af 92       	push	r10
     bc4:	0e 94 86 10 	call	0x210c	; 0x210c <printf>
     bc8:	0f 90       	pop	r0
     bca:	0f 90       	pop	r0
     bcc:	89 2d       	mov	r24, r9
     bce:	0e 94 5a 05 	call	0xab4	; 0xab4 <sys_getMonCmdInfo>
     bd2:	6b 01       	movw	r12, r22
     bd4:	7c 01       	movw	r14, r24
     bd6:	ef 28       	or	r14, r15
     bd8:	91 f6       	brne	.-92     	; 0xb7e <sys_cmd_help+0x5e>
     bda:	80 e0       	ldi	r24, 0x00	; 0
     bdc:	df 91       	pop	r29
     bde:	cf 91       	pop	r28
     be0:	1f 91       	pop	r17
     be2:	0f 91       	pop	r16
     be4:	ff 90       	pop	r15
     be6:	ef 90       	pop	r14
     be8:	df 90       	pop	r13
     bea:	cf 90       	pop	r12
     bec:	bf 90       	pop	r11
     bee:	af 90       	pop	r10
     bf0:	9f 90       	pop	r9
     bf2:	8f 90       	pop	r8
     bf4:	08 95       	ret

00000bf6 <sys_mon_printUsageInfo>:
     bf6:	ef 92       	push	r14
     bf8:	ff 92       	push	r15
     bfa:	0f 93       	push	r16
     bfc:	1f 93       	push	r17
     bfe:	cf 93       	push	r28
     c00:	df 93       	push	r29
     c02:	1f 92       	push	r1
     c04:	cd b7       	in	r28, 0x3d	; 61
     c06:	de b7       	in	r29, 0x3e	; 62
     c08:	fc 01       	movw	r30, r24
     c0a:	60 81       	ld	r22, Z
     c0c:	71 81       	ldd	r23, Z+1	; 0x01
     c0e:	01 c0       	rjmp	.+2      	; 0xc12 <sys_mon_printUsageInfo+0x1c>
     c10:	b8 01       	movw	r22, r16
     c12:	8b 01       	movw	r16, r22
     c14:	0f 5f       	subi	r16, 0xFF	; 255
     c16:	1f 4f       	sbci	r17, 0xFF	; 255
     c18:	41 e0       	ldi	r20, 0x01	; 1
     c1a:	50 e0       	ldi	r21, 0x00	; 0
     c1c:	ce 01       	movw	r24, r28
     c1e:	01 96       	adiw	r24, 0x01	; 1
     c20:	0e 94 e5 0f 	call	0x1fca	; 0x1fca <memcpy_P>
     c24:	89 81       	ldd	r24, Y+1	; 0x01
     c26:	81 11       	cpse	r24, r1
     c28:	f3 cf       	rjmp	.-26     	; 0xc10 <sys_mon_printUsageInfo+0x1a>
     c2a:	01 c0       	rjmp	.+2      	; 0xc2e <sys_mon_printUsageInfo+0x38>
     c2c:	87 01       	movw	r16, r14
     c2e:	78 01       	movw	r14, r16
     c30:	ff ef       	ldi	r31, 0xFF	; 255
     c32:	ef 1a       	sub	r14, r31
     c34:	ff 0a       	sbc	r15, r31
     c36:	41 e0       	ldi	r20, 0x01	; 1
     c38:	50 e0       	ldi	r21, 0x00	; 0
     c3a:	b8 01       	movw	r22, r16
     c3c:	ce 01       	movw	r24, r28
     c3e:	01 96       	adiw	r24, 0x01	; 1
     c40:	0e 94 e5 0f 	call	0x1fca	; 0x1fca <memcpy_P>
     c44:	89 81       	ldd	r24, Y+1	; 0x01
     c46:	81 11       	cpse	r24, r1
     c48:	f1 cf       	rjmp	.-30     	; 0xc2c <sys_mon_printUsageInfo+0x36>
     c4a:	c7 01       	movw	r24, r14
     c4c:	0e 94 68 03 	call	0x6d0	; 0x6d0 <sys_printString_P>
     c50:	0f 90       	pop	r0
     c52:	df 91       	pop	r29
     c54:	cf 91       	pop	r28
     c56:	1f 91       	pop	r17
     c58:	0f 91       	pop	r16
     c5a:	ff 90       	pop	r15
     c5c:	ef 90       	pop	r14
     c5e:	08 95       	ret

00000c60 <sys_mon_ExecuteCmd>:
     c60:	ef 92       	push	r14
     c62:	ff 92       	push	r15
     c64:	0f 93       	push	r16
     c66:	1f 93       	push	r17
     c68:	cf 93       	push	r28
     c6a:	df 93       	push	r29
     c6c:	cd b7       	in	r28, 0x3d	; 61
     c6e:	de b7       	in	r29, 0x3e	; 62
     c70:	2c 97       	sbiw	r28, 0x0c	; 12
     c72:	0f b6       	in	r0, 0x3f	; 63
     c74:	f8 94       	cli
     c76:	de bf       	out	0x3e, r29	; 62
     c78:	0f be       	out	0x3f, r0	; 63
     c7a:	cd bf       	out	0x3d, r28	; 61
     c7c:	87 e4       	ldi	r24, 0x47	; 71
     c7e:	91 e0       	ldi	r25, 0x01	; 1
     c80:	9f 93       	push	r25
     c82:	8f 93       	push	r24
     c84:	0e 94 86 10 	call	0x210c	; 0x210c <printf>
     c88:	ae 01       	movw	r20, r28
     c8a:	4f 5f       	subi	r20, 0xFF	; 255
     c8c:	5f 4f       	sbci	r21, 0xFF	; 255
     c8e:	0f 90       	pop	r0
     c90:	0f 90       	pop	r0
     c92:	e7 e5       	ldi	r30, 0x57	; 87
     c94:	f1 e0       	ldi	r31, 0x01	; 1
     c96:	f1 2c       	mov	r15, r1
     c98:	80 81       	ld	r24, Z
     c9a:	88 23       	and	r24, r24
     c9c:	09 f4       	brne	.+2      	; 0xca0 <sys_mon_ExecuteCmd+0x40>
     c9e:	5d c0       	rjmp	.+186    	; 0xd5a <sys_mon_ExecuteCmd+0xfa>
     ca0:	80 32       	cpi	r24, 0x20	; 32
     ca2:	61 f4       	brne	.+24     	; 0xcbc <sys_mon_ExecuteCmd+0x5c>
     ca4:	9f 01       	movw	r18, r30
     ca6:	2f 5f       	subi	r18, 0xFF	; 255
     ca8:	3f 4f       	sbci	r19, 0xFF	; 255
     caa:	f9 01       	movw	r30, r18
     cac:	80 81       	ld	r24, Z
     cae:	2f 5f       	subi	r18, 0xFF	; 255
     cb0:	3f 4f       	sbci	r19, 0xFF	; 255
     cb2:	80 32       	cpi	r24, 0x20	; 32
     cb4:	d1 f3       	breq	.-12     	; 0xcaa <sys_mon_ExecuteCmd+0x4a>
     cb6:	88 23       	and	r24, r24
     cb8:	09 f4       	brne	.+2      	; 0xcbc <sys_mon_ExecuteCmd+0x5c>
     cba:	4f c0       	rjmp	.+158    	; 0xd5a <sys_mon_ExecuteCmd+0xfa>
     cbc:	da 01       	movw	r26, r20
     cbe:	ed 93       	st	X+, r30
     cc0:	fd 93       	st	X+, r31
     cc2:	ad 01       	movw	r20, r26
     cc4:	f3 94       	inc	r15
     cc6:	9f 01       	movw	r18, r30
     cc8:	2f 5f       	subi	r18, 0xFF	; 255
     cca:	3f 4f       	sbci	r19, 0xFF	; 255
     ccc:	02 c0       	rjmp	.+4      	; 0xcd2 <sys_mon_ExecuteCmd+0x72>
     cce:	88 23       	and	r24, r24
     cd0:	51 f0       	breq	.+20     	; 0xce6 <sys_mon_ExecuteCmd+0x86>
     cd2:	f9 01       	movw	r30, r18
     cd4:	80 81       	ld	r24, Z
     cd6:	2f 5f       	subi	r18, 0xFF	; 255
     cd8:	3f 4f       	sbci	r19, 0xFF	; 255
     cda:	80 32       	cpi	r24, 0x20	; 32
     cdc:	c1 f7       	brne	.-16     	; 0xcce <sys_mon_ExecuteCmd+0x6e>
     cde:	cf 01       	movw	r24, r30
     ce0:	f9 01       	movw	r30, r18
     ce2:	dc 01       	movw	r26, r24
     ce4:	1c 92       	st	X, r1
     ce6:	b4 e0       	ldi	r27, 0x04	; 4
     ce8:	fb 12       	cpse	r15, r27
     cea:	d6 cf       	rjmp	.-84     	; 0xc98 <sys_mon_ExecuteCmd+0x38>
     cec:	e9 81       	ldd	r30, Y+1	; 0x01
     cee:	fa 81       	ldd	r31, Y+2	; 0x02
     cf0:	80 81       	ld	r24, Z
     cf2:	88 23       	and	r24, r24
     cf4:	e9 f0       	breq	.+58     	; 0xd30 <sys_mon_ExecuteCmd+0xd0>
     cf6:	80 e0       	ldi	r24, 0x00	; 0
     cf8:	09 c0       	rjmp	.+18     	; 0xd0c <sys_mon_ExecuteCmd+0xac>
     cfa:	69 85       	ldd	r22, Y+9	; 0x09
     cfc:	7a 85       	ldd	r23, Y+10	; 0x0a
     cfe:	87 e5       	ldi	r24, 0x57	; 87
     d00:	91 e0       	ldi	r25, 0x01	; 1
     d02:	0e 94 ee 0f 	call	0x1fdc	; 0x1fdc <strcmp_P>
     d06:	89 2b       	or	r24, r25
     d08:	d9 f1       	breq	.+118    	; 0xd80 <sys_mon_ExecuteCmd+0x120>
     d0a:	8e 2d       	mov	r24, r14
     d0c:	ee 24       	eor	r14, r14
     d0e:	e3 94       	inc	r14
     d10:	e8 0e       	add	r14, r24
     d12:	0e 94 5a 05 	call	0xab4	; 0xab4 <sys_getMonCmdInfo>
     d16:	69 87       	std	Y+9, r22	; 0x09
     d18:	7a 87       	std	Y+10, r23	; 0x0a
     d1a:	8b 87       	std	Y+11, r24	; 0x0b
     d1c:	9c 87       	std	Y+12, r25	; 0x0c
     d1e:	0b 85       	ldd	r16, Y+11	; 0x0b
     d20:	1c 85       	ldd	r17, Y+12	; 0x0c
     d22:	01 15       	cp	r16, r1
     d24:	11 05       	cpc	r17, r1
     d26:	49 f7       	brne	.-46     	; 0xcfa <sys_mon_ExecuteCmd+0x9a>
     d28:	82 e6       	ldi	r24, 0x62	; 98
     d2a:	91 e0       	ldi	r25, 0x01	; 1
     d2c:	0e 94 68 03 	call	0x6d0	; 0x6d0 <sys_printString_P>
     d30:	82 e8       	ldi	r24, 0x82	; 130
     d32:	91 e0       	ldi	r25, 0x01	; 1
     d34:	0e 94 68 03 	call	0x6d0	; 0x6d0 <sys_printString_P>
     d38:	10 92 56 01 	sts	0x0156, r1
     d3c:	10 92 57 01 	sts	0x0157, r1
     d40:	2c 96       	adiw	r28, 0x0c	; 12
     d42:	0f b6       	in	r0, 0x3f	; 63
     d44:	f8 94       	cli
     d46:	de bf       	out	0x3e, r29	; 62
     d48:	0f be       	out	0x3f, r0	; 63
     d4a:	cd bf       	out	0x3d, r28	; 61
     d4c:	df 91       	pop	r29
     d4e:	cf 91       	pop	r28
     d50:	1f 91       	pop	r17
     d52:	0f 91       	pop	r16
     d54:	ff 90       	pop	r15
     d56:	ef 90       	pop	r14
     d58:	08 95       	ret
     d5a:	8f 2d       	mov	r24, r15
     d5c:	e8 2f       	mov	r30, r24
     d5e:	f0 e0       	ldi	r31, 0x00	; 0
     d60:	ee 0f       	add	r30, r30
     d62:	ff 1f       	adc	r31, r31
     d64:	21 e0       	ldi	r18, 0x01	; 1
     d66:	30 e0       	ldi	r19, 0x00	; 0
     d68:	2c 0f       	add	r18, r28
     d6a:	3d 1f       	adc	r19, r29
     d6c:	e2 0f       	add	r30, r18
     d6e:	f3 1f       	adc	r31, r19
     d70:	11 82       	std	Z+1, r1	; 0x01
     d72:	10 82       	st	Z, r1
     d74:	8f 5f       	subi	r24, 0xFF	; 255
     d76:	84 30       	cpi	r24, 0x04	; 4
     d78:	89 f7       	brne	.-30     	; 0xd5c <sys_mon_ExecuteCmd+0xfc>
     d7a:	ff 20       	and	r15, r15
     d7c:	c9 f2       	breq	.-78     	; 0xd30 <sys_mon_ExecuteCmd+0xd0>
     d7e:	b6 cf       	rjmp	.-148    	; 0xcec <sys_mon_ExecuteCmd+0x8c>
     d80:	32 e0       	ldi	r19, 0x02	; 2
     d82:	f3 12       	cpse	r15, r19
     d84:	08 c0       	rjmp	.+16     	; 0xd96 <sys_mon_ExecuteCmd+0x136>
     d86:	69 e2       	ldi	r22, 0x29	; 41
     d88:	71 e0       	ldi	r23, 0x01	; 1
     d8a:	8b 81       	ldd	r24, Y+3	; 0x03
     d8c:	9c 81       	ldd	r25, Y+4	; 0x04
     d8e:	0e 94 ee 0f 	call	0x1fdc	; 0x1fdc <strcmp_P>
     d92:	89 2b       	or	r24, r25
     d94:	61 f1       	breq	.+88     	; 0xdee <sys_mon_ExecuteCmd+0x18e>
     d96:	be 01       	movw	r22, r28
     d98:	6f 5f       	subi	r22, 0xFF	; 255
     d9a:	7f 4f       	sbci	r23, 0xFF	; 255
     d9c:	8f 2d       	mov	r24, r15
     d9e:	f8 01       	movw	r30, r16
     da0:	09 95       	icall
     da2:	18 2f       	mov	r17, r24
     da4:	81 11       	cpse	r24, r1
     da6:	09 c0       	rjmp	.+18     	; 0xdba <sys_mon_ExecuteCmd+0x15a>
     da8:	87 e4       	ldi	r24, 0x47	; 71
     daa:	91 e0       	ldi	r25, 0x01	; 1
     dac:	9f 93       	push	r25
     dae:	8f 93       	push	r24
     db0:	0e 94 86 10 	call	0x210c	; 0x210c <printf>
     db4:	0f 90       	pop	r0
     db6:	0f 90       	pop	r0
     db8:	bb cf       	rjmp	.-138    	; 0xd30 <sys_mon_ExecuteCmd+0xd0>
     dba:	8b e7       	ldi	r24, 0x7B	; 123
     dbc:	91 e0       	ldi	r25, 0x01	; 1
     dbe:	0e 94 68 03 	call	0x6d0	; 0x6d0 <sys_printString_P>
     dc2:	21 2f       	mov	r18, r17
     dc4:	33 27       	eor	r19, r19
     dc6:	27 fd       	sbrc	r18, 7
     dc8:	30 95       	com	r19
     dca:	3f 93       	push	r19
     dcc:	1f 93       	push	r17
     dce:	2a e3       	ldi	r18, 0x3A	; 58
     dd0:	31 e0       	ldi	r19, 0x01	; 1
     dd2:	3f 93       	push	r19
     dd4:	2f 93       	push	r18
     dd6:	0e 94 86 10 	call	0x210c	; 0x210c <printf>
     dda:	0f 90       	pop	r0
     ddc:	0f 90       	pop	r0
     dde:	0f 90       	pop	r0
     de0:	0f 90       	pop	r0
     de2:	17 ff       	sbrs	r17, 7
     de4:	e1 cf       	rjmp	.-62     	; 0xda8 <sys_mon_ExecuteCmd+0x148>
     de6:	88 e4       	ldi	r24, 0x48	; 72
     de8:	91 e0       	ldi	r25, 0x01	; 1
     dea:	0e 94 68 03 	call	0x6d0	; 0x6d0 <sys_printString_P>
     dee:	ce 01       	movw	r24, r28
     df0:	09 96       	adiw	r24, 0x09	; 9
     df2:	0e 94 fb 05 	call	0xbf6	; 0xbf6 <sys_mon_printUsageInfo>
     df6:	d8 cf       	rjmp	.-80     	; 0xda8 <sys_mon_ExecuteCmd+0x148>

00000df8 <sys_mon_CmdLineBack>:
     df8:	80 91 56 01 	lds	r24, 0x0156
     dfc:	81 11       	cpse	r24, r1
     dfe:	01 c0       	rjmp	.+2      	; 0xe02 <sys_mon_CmdLineBack+0xa>
     e00:	08 95       	ret
     e02:	8d e3       	ldi	r24, 0x3D	; 61
     e04:	91 e0       	ldi	r25, 0x01	; 1
     e06:	9f 93       	push	r25
     e08:	8f 93       	push	r24
     e0a:	0e 94 86 10 	call	0x210c	; 0x210c <printf>
     e0e:	e0 91 56 01 	lds	r30, 0x0156
     e12:	e1 50       	subi	r30, 0x01	; 1
     e14:	e0 93 56 01 	sts	0x0156, r30
     e18:	f0 e0       	ldi	r31, 0x00	; 0
     e1a:	ec 5a       	subi	r30, 0xAC	; 172
     e1c:	fe 4f       	sbci	r31, 0xFE	; 254
     e1e:	13 82       	std	Z+3, r1	; 0x03
     e20:	0f 90       	pop	r0
     e22:	0f 90       	pop	r0
     e24:	08 95       	ret

00000e26 <sys_putnchar>:
     e26:	1f 93       	push	r17
     e28:	cf 93       	push	r28
     e2a:	df 93       	push	r29
     e2c:	16 2f       	mov	r17, r22
     e2e:	66 23       	and	r22, r22
     e30:	69 f0       	breq	.+26     	; 0xe4c <sys_putnchar+0x26>
     e32:	c8 2f       	mov	r28, r24
     e34:	dd 27       	eor	r29, r29
     e36:	c7 fd       	sbrc	r28, 7
     e38:	d0 95       	com	r29
     e3a:	60 91 97 01 	lds	r22, 0x0197
     e3e:	70 91 98 01 	lds	r23, 0x0198
     e42:	ce 01       	movw	r24, r28
     e44:	0e 94 54 10 	call	0x20a8	; 0x20a8 <fputc>
     e48:	11 50       	subi	r17, 0x01	; 1
     e4a:	b9 f7       	brne	.-18     	; 0xe3a <sys_putnchar+0x14>
     e4c:	df 91       	pop	r29
     e4e:	cf 91       	pop	r28
     e50:	1f 91       	pop	r17
     e52:	08 95       	ret

00000e54 <sys_mon_main>:
     e54:	cf 93       	push	r28
     e56:	df 93       	push	r29
     e58:	80 91 54 01 	lds	r24, 0x0154
     e5c:	80 ff       	sbrs	r24, 0
     e5e:	3d c0       	rjmp	.+122    	; 0xeda <sys_mon_main+0x86>
     e60:	c0 e0       	ldi	r28, 0x00	; 0
     e62:	0e 94 a0 04 	call	0x940	; 0x940 <sys_uart_available>
     e66:	88 23       	and	r24, r24
     e68:	09 f4       	brne	.+2      	; 0xe6c <sys_mon_main+0x18>
     e6a:	68 c0       	rjmp	.+208    	; 0xf3c <sys_mon_main+0xe8>
     e6c:	80 91 95 01 	lds	r24, 0x0195
     e70:	90 91 96 01 	lds	r25, 0x0196
     e74:	0e 94 16 10 	call	0x202c	; 0x202c <fgetc>
     e78:	c8 2f       	mov	r28, r24
     e7a:	80 91 50 01 	lds	r24, 0x0150
     e7e:	8a 30       	cpi	r24, 0x0A	; 10
     e80:	11 f0       	breq	.+4      	; 0xe86 <sys_mon_main+0x32>
     e82:	cd 30       	cpi	r28, 0x0D	; 13
     e84:	21 f0       	breq	.+8      	; 0xe8e <sys_mon_main+0x3a>
     e86:	c0 93 50 01 	sts	0x0150, r28
     e8a:	ca 30       	cpi	r28, 0x0A	; 10
     e8c:	51 f7       	brne	.-44     	; 0xe62 <sys_mon_main+0xe>
     e8e:	80 91 54 01 	lds	r24, 0x0154
     e92:	8c 7f       	andi	r24, 0xFC	; 252
     e94:	80 93 54 01 	sts	0x0154, r24
     e98:	81 e4       	ldi	r24, 0x41	; 65
     e9a:	91 e0       	ldi	r25, 0x01	; 1
     e9c:	9f 93       	push	r25
     e9e:	8f 93       	push	r24
     ea0:	0e 94 86 10 	call	0x210c	; 0x210c <printf>
     ea4:	0f 90       	pop	r0
     ea6:	0f 90       	pop	r0
     ea8:	df 91       	pop	r29
     eaa:	cf 91       	pop	r28
     eac:	08 95       	ret
     eae:	e1 e0       	ldi	r30, 0x01	; 1
     eb0:	ea 0f       	add	r30, r26
     eb2:	e0 93 56 01 	sts	0x0156, r30
     eb6:	b0 e0       	ldi	r27, 0x00	; 0
     eb8:	ac 5a       	subi	r26, 0xAC	; 172
     eba:	be 4f       	sbci	r27, 0xFE	; 254
     ebc:	13 96       	adiw	r26, 0x03	; 3
     ebe:	8c 93       	st	X, r24
     ec0:	f0 e0       	ldi	r31, 0x00	; 0
     ec2:	ec 5a       	subi	r30, 0xAC	; 172
     ec4:	fe 4f       	sbci	r31, 0xFE	; 254
     ec6:	13 82       	std	Z+3, r1	; 0x03
     ec8:	60 91 97 01 	lds	r22, 0x0197
     ecc:	70 91 98 01 	lds	r23, 0x0198
     ed0:	99 27       	eor	r25, r25
     ed2:	87 fd       	sbrc	r24, 7
     ed4:	90 95       	com	r25
     ed6:	0e 94 54 10 	call	0x20a8	; 0x20a8 <fputc>
     eda:	0e 94 a0 04 	call	0x940	; 0x940 <sys_uart_available>
     ede:	88 23       	and	r24, r24
     ee0:	19 f3       	breq	.-58     	; 0xea8 <sys_mon_main+0x54>
     ee2:	80 91 95 01 	lds	r24, 0x0195
     ee6:	90 91 96 01 	lds	r25, 0x0196
     eea:	0e 94 16 10 	call	0x202c	; 0x202c <fgetc>
     eee:	90 91 50 01 	lds	r25, 0x0150
     ef2:	9a 30       	cpi	r25, 0x0A	; 10
     ef4:	11 f0       	breq	.+4      	; 0xefa <sys_mon_main+0xa6>
     ef6:	8d 30       	cpi	r24, 0x0D	; 13
     ef8:	d9 f0       	breq	.+54     	; 0xf30 <sys_mon_main+0xdc>
     efa:	80 93 50 01 	sts	0x0150, r24
     efe:	98 ee       	ldi	r25, 0xE8	; 232
     f00:	98 0f       	add	r25, r24
     f02:	92 30       	cpi	r25, 0x02	; 2
     f04:	78 f0       	brcs	.+30     	; 0xf24 <sys_mon_main+0xd0>
     f06:	8a 30       	cpi	r24, 0x0A	; 10
     f08:	99 f0       	breq	.+38     	; 0xf30 <sys_mon_main+0xdc>
     f0a:	8f 37       	cpi	r24, 0x7F	; 127
     f0c:	31 f3       	breq	.-52     	; 0xeda <sys_mon_main+0x86>
     f0e:	88 30       	cpi	r24, 0x08	; 8
     f10:	91 f0       	breq	.+36     	; 0xf36 <sys_mon_main+0xe2>
     f12:	90 ee       	ldi	r25, 0xE0	; 224
     f14:	98 0f       	add	r25, r24
     f16:	9f 35       	cpi	r25, 0x5F	; 95
     f18:	00 f7       	brcc	.-64     	; 0xeda <sys_mon_main+0x86>
     f1a:	a0 91 56 01 	lds	r26, 0x0156
     f1e:	a7 32       	cpi	r26, 0x27	; 39
     f20:	e0 f6       	brcc	.-72     	; 0xeda <sys_mon_main+0x86>
     f22:	c5 cf       	rjmp	.-118    	; 0xeae <sys_mon_main+0x5a>
     f24:	80 91 54 01 	lds	r24, 0x0154
     f28:	81 60       	ori	r24, 0x01	; 1
     f2a:	80 93 54 01 	sts	0x0154, r24
     f2e:	d5 cf       	rjmp	.-86     	; 0xeda <sys_mon_main+0x86>
     f30:	0e 94 30 06 	call	0xc60	; 0xc60 <sys_mon_ExecuteCmd>
     f34:	d2 cf       	rjmp	.-92     	; 0xeda <sys_mon_main+0x86>
     f36:	0e 94 fc 06 	call	0xdf8	; 0xdf8 <sys_mon_CmdLineBack>
     f3a:	cf cf       	rjmp	.-98     	; 0xeda <sys_mon_main+0x86>
     f3c:	c8 31       	cpi	r28, 0x18	; 24
     f3e:	59 f1       	breq	.+86     	; 0xf96 <sys_mon_main+0x142>
     f40:	c9 31       	cpi	r28, 0x19	; 25
     f42:	09 f4       	brne	.+2      	; 0xf46 <sys_mon_main+0xf2>
     f44:	7b c0       	rjmp	.+246    	; 0x103c <sys_mon_main+0x1e8>
     f46:	c3 30       	cpi	r28, 0x03	; 3
     f48:	09 f4       	brne	.+2      	; 0xf4c <sys_mon_main+0xf8>
     f4a:	7f c0       	rjmp	.+254    	; 0x104a <sys_mon_main+0x1f6>
     f4c:	d0 e0       	ldi	r29, 0x00	; 0
     f4e:	80 91 54 01 	lds	r24, 0x0154
     f52:	81 ff       	sbrs	r24, 1
     f54:	27 c0       	rjmp	.+78     	; 0xfa4 <sys_mon_main+0x150>
     f56:	80 91 55 01 	lds	r24, 0x0155
     f5a:	6c 2f       	mov	r22, r28
     f5c:	0e 94 7b 02 	call	0x4f6	; 0x4f6 <mon_printLine>
     f60:	c8 2f       	mov	r28, r24
     f62:	88 23       	and	r24, r24
     f64:	51 f0       	breq	.+20     	; 0xf7a <sys_mon_main+0x126>
     f66:	60 91 97 01 	lds	r22, 0x0197
     f6a:	70 91 98 01 	lds	r23, 0x0198
     f6e:	80 e2       	ldi	r24, 0x20	; 32
     f70:	90 e0       	ldi	r25, 0x00	; 0
     f72:	0e 94 54 10 	call	0x20a8	; 0x20a8 <fputc>
     f76:	c1 50       	subi	r28, 0x01	; 1
     f78:	b1 f7       	brne	.-20     	; 0xf66 <sys_mon_main+0x112>
     f7a:	8d e0       	ldi	r24, 0x0D	; 13
     f7c:	90 e0       	ldi	r25, 0x00	; 0
     f7e:	0e 94 9a 10 	call	0x2134	; 0x2134 <putchar>
     f82:	80 91 54 01 	lds	r24, 0x0154
     f86:	82 ff       	sbrs	r24, 2
     f88:	8f cf       	rjmp	.-226    	; 0xea8 <sys_mon_main+0x54>
     f8a:	8a e0       	ldi	r24, 0x0A	; 10
     f8c:	90 e0       	ldi	r25, 0x00	; 0
     f8e:	df 91       	pop	r29
     f90:	cf 91       	pop	r28
     f92:	0c 94 9a 10 	jmp	0x2134	; 0x2134 <putchar>
     f96:	80 91 54 01 	lds	r24, 0x0154
     f9a:	8d 7f       	andi	r24, 0xFD	; 253
     f9c:	80 93 54 01 	sts	0x0154, r24
     fa0:	d1 e0       	ldi	r29, 0x01	; 1
     fa2:	d5 cf       	rjmp	.-86     	; 0xf4e <sys_mon_main+0xfa>
     fa4:	86 e4       	ldi	r24, 0x46	; 70
     fa6:	91 e0       	ldi	r25, 0x01	; 1
     fa8:	9f 93       	push	r25
     faa:	8f 93       	push	r24
     fac:	0e 94 86 10 	call	0x210c	; 0x210c <printf>
     fb0:	0f 90       	pop	r0
     fb2:	0f 90       	pop	r0
     fb4:	0e c0       	rjmp	.+28     	; 0xfd2 <sys_mon_main+0x17e>
     fb6:	8f 5f       	subi	r24, 0xFF	; 255
     fb8:	80 93 55 01 	sts	0x0155, r24
     fbc:	80 91 55 01 	lds	r24, 0x0155
     fc0:	0e 94 51 02 	call	0x4a2	; 0x4a2 <mon_printLineHeader>
     fc4:	c8 2f       	mov	r28, r24
     fc6:	87 ff       	sbrs	r24, 7
     fc8:	0c c0       	rjmp	.+24     	; 0xfe2 <sys_mon_main+0x18e>
     fca:	80 91 55 01 	lds	r24, 0x0155
     fce:	88 23       	and	r24, r24
     fd0:	61 f1       	breq	.+88     	; 0x102a <sys_mon_main+0x1d6>
     fd2:	dd 23       	and	r29, r29
     fd4:	99 f3       	breq	.-26     	; 0xfbc <sys_mon_main+0x168>
     fd6:	80 91 55 01 	lds	r24, 0x0155
     fda:	d1 30       	cpi	r29, 0x01	; 1
     fdc:	61 f3       	breq	.-40     	; 0xfb6 <sys_mon_main+0x162>
     fde:	81 50       	subi	r24, 0x01	; 1
     fe0:	eb cf       	rjmp	.-42     	; 0xfb8 <sys_mon_main+0x164>
     fe2:	27 e4       	ldi	r18, 0x47	; 71
     fe4:	31 e0       	ldi	r19, 0x01	; 1
     fe6:	3f 93       	push	r19
     fe8:	2f 93       	push	r18
     fea:	0e 94 86 10 	call	0x210c	; 0x210c <printf>
     fee:	0f 90       	pop	r0
     ff0:	0f 90       	pop	r0
     ff2:	cc 23       	and	r28, r28
     ff4:	51 f0       	breq	.+20     	; 0x100a <sys_mon_main+0x1b6>
     ff6:	60 91 97 01 	lds	r22, 0x0197
     ffa:	70 91 98 01 	lds	r23, 0x0198
     ffe:	8d e2       	ldi	r24, 0x2D	; 45
    1000:	90 e0       	ldi	r25, 0x00	; 0
    1002:	0e 94 54 10 	call	0x20a8	; 0x20a8 <fputc>
    1006:	c1 50       	subi	r28, 0x01	; 1
    1008:	b1 f7       	brne	.-20     	; 0xff6 <sys_mon_main+0x1a2>
    100a:	87 e4       	ldi	r24, 0x47	; 71
    100c:	91 e0       	ldi	r25, 0x01	; 1
    100e:	9f 93       	push	r25
    1010:	8f 93       	push	r24
    1012:	0e 94 86 10 	call	0x210c	; 0x210c <printf>
    1016:	80 91 54 01 	lds	r24, 0x0154
    101a:	82 60       	ori	r24, 0x02	; 2
    101c:	80 93 54 01 	sts	0x0154, r24
    1020:	0f 90       	pop	r0
    1022:	0f 90       	pop	r0
    1024:	df 91       	pop	r29
    1026:	cf 91       	pop	r28
    1028:	08 95       	ret
    102a:	87 e4       	ldi	r24, 0x47	; 71
    102c:	91 e0       	ldi	r25, 0x01	; 1
    102e:	9f 93       	push	r25
    1030:	8f 93       	push	r24
    1032:	0e 94 86 10 	call	0x210c	; 0x210c <printf>
    1036:	0f 90       	pop	r0
    1038:	0f 90       	pop	r0
    103a:	e7 cf       	rjmp	.-50     	; 0x100a <sys_mon_main+0x1b6>
    103c:	80 91 54 01 	lds	r24, 0x0154
    1040:	8d 7f       	andi	r24, 0xFD	; 253
    1042:	80 93 54 01 	sts	0x0154, r24
    1046:	df ef       	ldi	r29, 0xFF	; 255
    1048:	82 cf       	rjmp	.-252    	; 0xf4e <sys_mon_main+0xfa>
    104a:	80 91 54 01 	lds	r24, 0x0154
    104e:	82 ff       	sbrs	r24, 2
    1050:	07 c0       	rjmp	.+14     	; 0x1060 <sys_mon_main+0x20c>
    1052:	80 91 54 01 	lds	r24, 0x0154
    1056:	89 7f       	andi	r24, 0xF9	; 249
    1058:	80 93 54 01 	sts	0x0154, r24
    105c:	d0 e0       	ldi	r29, 0x00	; 0
    105e:	77 cf       	rjmp	.-274    	; 0xf4e <sys_mon_main+0xfa>
    1060:	80 91 54 01 	lds	r24, 0x0154
    1064:	84 60       	ori	r24, 0x04	; 4
    1066:	80 93 54 01 	sts	0x0154, r24
    106a:	d0 e0       	ldi	r29, 0x00	; 0
    106c:	70 cf       	rjmp	.-288    	; 0xf4e <sys_mon_main+0xfa>

0000106e <sys_main>:
    106e:	0c 94 2a 07 	jmp	0xe54	; 0xe54 <sys_mon_main>

00001072 <__vector_11>:
    1072:	1f 92       	push	r1
    1074:	0f 92       	push	r0
    1076:	0f b6       	in	r0, 0x3f	; 63
    1078:	0f 92       	push	r0
    107a:	11 24       	eor	r1, r1
    107c:	2f 93       	push	r18
    107e:	8f 93       	push	r24
    1080:	9f 93       	push	r25
    1082:	ef 93       	push	r30
    1084:	ff 93       	push	r31
    1086:	8c b1       	in	r24, 0x0c	; 12
    1088:	82 35       	cpi	r24, 0x52	; 82
    108a:	41 f1       	breq	.+80     	; 0x10dc <__vector_11+0x6a>
    108c:	80 93 4f 01 	sts	0x014F, r24
    1090:	e0 91 83 01 	lds	r30, 0x0183
    1094:	91 e0       	ldi	r25, 0x01	; 1
    1096:	9e 0f       	add	r25, r30
    1098:	90 93 83 01 	sts	0x0183, r25
    109c:	f0 e0       	ldi	r31, 0x00	; 0
    109e:	e1 58       	subi	r30, 0x81	; 129
    10a0:	fe 4f       	sbci	r31, 0xFE	; 254
    10a2:	86 83       	std	Z+6, r24	; 0x06
    10a4:	80 91 83 01 	lds	r24, 0x0183
    10a8:	80 31       	cpi	r24, 0x10	; 16
    10aa:	10 f0       	brcs	.+4      	; 0x10b0 <__vector_11+0x3e>
    10ac:	10 92 83 01 	sts	0x0183, r1
    10b0:	90 91 83 01 	lds	r25, 0x0183
    10b4:	80 91 82 01 	lds	r24, 0x0182
    10b8:	98 17       	cp	r25, r24
    10ba:	f9 f0       	breq	.+62     	; 0x10fa <__vector_11+0x88>
    10bc:	e0 91 83 01 	lds	r30, 0x0183
    10c0:	f0 e0       	ldi	r31, 0x00	; 0
    10c2:	e1 58       	subi	r30, 0x81	; 129
    10c4:	fe 4f       	sbci	r31, 0xFE	; 254
    10c6:	16 82       	std	Z+6, r1	; 0x06
    10c8:	ff 91       	pop	r31
    10ca:	ef 91       	pop	r30
    10cc:	9f 91       	pop	r25
    10ce:	8f 91       	pop	r24
    10d0:	2f 91       	pop	r18
    10d2:	0f 90       	pop	r0
    10d4:	0f be       	out	0x3f, r0	; 63
    10d6:	0f 90       	pop	r0
    10d8:	1f 90       	pop	r1
    10da:	18 95       	reti
    10dc:	90 91 4f 01 	lds	r25, 0x014F
    10e0:	90 34       	cpi	r25, 0x40	; 64
    10e2:	a1 f6       	brne	.-88     	; 0x108c <__vector_11+0x1a>
    10e4:	28 e0       	ldi	r18, 0x08	; 8
    10e6:	88 e1       	ldi	r24, 0x18	; 24
    10e8:	90 e0       	ldi	r25, 0x00	; 0
    10ea:	0f b6       	in	r0, 0x3f	; 63
    10ec:	f8 94       	cli
    10ee:	a8 95       	wdr
    10f0:	81 bd       	out	0x21, r24	; 33
    10f2:	0f be       	out	0x3f, r0	; 63
    10f4:	21 bd       	out	0x21, r18	; 33
    10f6:	a8 95       	wdr
    10f8:	ff cf       	rjmp	.-2      	; 0x10f8 <__vector_11+0x86>
    10fa:	80 91 83 01 	lds	r24, 0x0183
    10fe:	81 11       	cpse	r24, r1
    1100:	0b c0       	rjmp	.+22     	; 0x1118 <__vector_11+0xa6>
    1102:	8f e0       	ldi	r24, 0x0F	; 15
    1104:	80 93 83 01 	sts	0x0183, r24
    1108:	80 91 84 01 	lds	r24, 0x0184
    110c:	8f 3f       	cpi	r24, 0xFF	; 255
    110e:	69 f0       	breq	.+26     	; 0x112a <__vector_11+0xb8>
    1110:	8f 5f       	subi	r24, 0xFF	; 255
    1112:	80 93 84 01 	sts	0x0184, r24
    1116:	d2 cf       	rjmp	.-92     	; 0x10bc <__vector_11+0x4a>
    1118:	80 91 83 01 	lds	r24, 0x0183
    111c:	81 50       	subi	r24, 0x01	; 1
    111e:	80 93 83 01 	sts	0x0183, r24
    1122:	80 91 84 01 	lds	r24, 0x0184
    1126:	8f 3f       	cpi	r24, 0xFF	; 255
    1128:	99 f7       	brne	.-26     	; 0x1110 <__vector_11+0x9e>
    112a:	8f ef       	ldi	r24, 0xFF	; 255
    112c:	f2 cf       	rjmp	.-28     	; 0x1112 <__vector_11+0xa0>

0000112e <__vector_19>:
    112e:	1f 92       	push	r1
    1130:	0f 92       	push	r0
    1132:	0f b6       	in	r0, 0x3f	; 63
    1134:	0f 92       	push	r0
    1136:	11 24       	eor	r1, r1
    1138:	2f 93       	push	r18
    113a:	3f 93       	push	r19
    113c:	4f 93       	push	r20
    113e:	5f 93       	push	r21
    1140:	6f 93       	push	r22
    1142:	7f 93       	push	r23
    1144:	8f 93       	push	r24
    1146:	9f 93       	push	r25
    1148:	af 93       	push	r26
    114a:	bf 93       	push	r27
    114c:	ef 93       	push	r30
    114e:	ff 93       	push	r31
    1150:	80 91 4e 01 	lds	r24, 0x014E
    1154:	8f 5f       	subi	r24, 0xFF	; 255
    1156:	85 30       	cpi	r24, 0x05	; 5
    1158:	e0 f1       	brcs	.+120    	; 0x11d2 <__vector_19+0xa4>
    115a:	10 92 4e 01 	sts	0x014E, r1
    115e:	80 91 4d 01 	lds	r24, 0x014D
    1162:	8f 5f       	subi	r24, 0xFF	; 255
    1164:	80 93 4d 01 	sts	0x014D, r24
    1168:	80 91 4c 01 	lds	r24, 0x014C
    116c:	88 23       	and	r24, r24
    116e:	c1 f0       	breq	.+48     	; 0x11a0 <__vector_19+0x72>
    1170:	80 91 80 01 	lds	r24, 0x0180
    1174:	8f 3f       	cpi	r24, 0xFF	; 255
    1176:	c1 f1       	breq	.+112    	; 0x11e8 <__vector_19+0xba>
    1178:	8f 5f       	subi	r24, 0xFF	; 255
    117a:	80 93 80 01 	sts	0x0180, r24
    117e:	ff 91       	pop	r31
    1180:	ef 91       	pop	r30
    1182:	bf 91       	pop	r27
    1184:	af 91       	pop	r26
    1186:	9f 91       	pop	r25
    1188:	8f 91       	pop	r24
    118a:	7f 91       	pop	r23
    118c:	6f 91       	pop	r22
    118e:	5f 91       	pop	r21
    1190:	4f 91       	pop	r20
    1192:	3f 91       	pop	r19
    1194:	2f 91       	pop	r18
    1196:	0f 90       	pop	r0
    1198:	0f be       	out	0x3f, r0	; 63
    119a:	0f 90       	pop	r0
    119c:	1f 90       	pop	r1
    119e:	18 95       	reti
    11a0:	81 e0       	ldi	r24, 0x01	; 1
    11a2:	80 93 4c 01 	sts	0x014C, r24
    11a6:	78 94       	sei
    11a8:	80 91 4d 01 	lds	r24, 0x014D
    11ac:	80 fd       	sbrc	r24, 0
    11ae:	19 c0       	rjmp	.+50     	; 0x11e2 <__vector_19+0xb4>
    11b0:	81 fd       	sbrc	r24, 1
    11b2:	12 c0       	rjmp	.+36     	; 0x11d8 <__vector_19+0xaa>
    11b4:	82 fd       	sbrc	r24, 2
    11b6:	1d c0       	rjmp	.+58     	; 0x11f2 <__vector_19+0xc4>
    11b8:	83 fd       	sbrc	r24, 3
    11ba:	1e c0       	rjmp	.+60     	; 0x11f8 <__vector_19+0xca>
    11bc:	84 fd       	sbrc	r24, 4
    11be:	1f c0       	rjmp	.+62     	; 0x11fe <__vector_19+0xd0>
    11c0:	85 fd       	sbrc	r24, 5
    11c2:	14 c0       	rjmp	.+40     	; 0x11ec <__vector_19+0xbe>
    11c4:	86 fd       	sbrc	r24, 6
    11c6:	1e c0       	rjmp	.+60     	; 0x1204 <__vector_19+0xd6>
    11c8:	87 ff       	sbrs	r24, 7
    11ca:	08 c0       	rjmp	.+16     	; 0x11dc <__vector_19+0xae>
    11cc:	0e 94 7f 01 	call	0x2fe	; 0x2fe <app_task_128ms>
    11d0:	05 c0       	rjmp	.+10     	; 0x11dc <__vector_19+0xae>
    11d2:	80 93 4e 01 	sts	0x014E, r24
    11d6:	d3 cf       	rjmp	.-90     	; 0x117e <__vector_19+0x50>
    11d8:	0e 94 79 01 	call	0x2f2	; 0x2f2 <app_task_2ms>
    11dc:	10 92 4c 01 	sts	0x014C, r1
    11e0:	ce cf       	rjmp	.-100    	; 0x117e <__vector_19+0x50>
    11e2:	0e 94 74 01 	call	0x2e8	; 0x2e8 <app_task_1ms>
    11e6:	fa cf       	rjmp	.-12     	; 0x11dc <__vector_19+0xae>
    11e8:	8f ef       	ldi	r24, 0xFF	; 255
    11ea:	c7 cf       	rjmp	.-114    	; 0x117a <__vector_19+0x4c>
    11ec:	0e 94 7d 01 	call	0x2fa	; 0x2fa <app_task_32ms>
    11f0:	f5 cf       	rjmp	.-22     	; 0x11dc <__vector_19+0xae>
    11f2:	0e 94 7a 01 	call	0x2f4	; 0x2f4 <app_task_4ms>
    11f6:	f2 cf       	rjmp	.-28     	; 0x11dc <__vector_19+0xae>
    11f8:	0e 94 7b 01 	call	0x2f6	; 0x2f6 <app_task_8ms>
    11fc:	ef cf       	rjmp	.-34     	; 0x11dc <__vector_19+0xae>
    11fe:	0e 94 7c 01 	call	0x2f8	; 0x2f8 <app_task_16ms>
    1202:	ec cf       	rjmp	.-40     	; 0x11dc <__vector_19+0xae>
    1204:	0e 94 7e 01 	call	0x2fc	; 0x2fc <app_task_64ms>
    1208:	e9 cf       	rjmp	.-46     	; 0x11dc <__vector_19+0xae>

0000120a <main>:
    120a:	0e 94 0f 03 	call	0x61e	; 0x61e <sys_init>
    120e:	0e 94 69 01 	call	0x2d2	; 0x2d2 <app_init>
    1212:	0e 94 43 02 	call	0x486	; 0x486 <mon_init>
    1216:	89 e6       	ldi	r24, 0x69	; 105
    1218:	90 e0       	ldi	r25, 0x00	; 0
    121a:	0e 94 68 03 	call	0x6d0	; 0x6d0 <sys_printString_P>
    121e:	8d e5       	ldi	r24, 0x5D	; 93
    1220:	90 e0       	ldi	r25, 0x00	; 0
    1222:	0e 94 68 03 	call	0x6d0	; 0x6d0 <sys_printString_P>
    1226:	80 e2       	ldi	r24, 0x20	; 32
    1228:	90 e0       	ldi	r25, 0x00	; 0
    122a:	0e 94 9a 10 	call	0x2134	; 0x2134 <putchar>
    122e:	84 e5       	ldi	r24, 0x54	; 84
    1230:	90 e0       	ldi	r25, 0x00	; 0
    1232:	0e 94 8d 03 	call	0x71a	; 0x71a <sys_puts_P>
    1236:	0e 94 5f 03 	call	0x6be	; 0x6be <sys_newline>
    123a:	8e e3       	ldi	r24, 0x3E	; 62
    123c:	90 e0       	ldi	r25, 0x00	; 0
    123e:	0e 94 9a 10 	call	0x2134	; 0x2134 <putchar>
    1242:	78 94       	sei
    1244:	0e 94 37 08 	call	0x106e	; 0x106e <sys_main>
    1248:	0e 94 73 01 	call	0x2e6	; 0x2e6 <app_main>
    124c:	0e 94 46 02 	call	0x48c	; 0x48c <mon_main>
    1250:	f9 cf       	rjmp	.-14     	; 0x1244 <main+0x3a>

00001252 <vfprintf>:
    1252:	a3 e1       	ldi	r26, 0x13	; 19
    1254:	b0 e0       	ldi	r27, 0x00	; 0
    1256:	ef e2       	ldi	r30, 0x2F	; 47
    1258:	f9 e0       	ldi	r31, 0x09	; 9
    125a:	0c 94 a4 0c 	jmp	0x1948	; 0x1948 <__prologue_saves__>
    125e:	7c 01       	movw	r14, r24
    1260:	1b 01       	movw	r2, r22
    1262:	6a 01       	movw	r12, r20
    1264:	fc 01       	movw	r30, r24
    1266:	17 82       	std	Z+7, r1	; 0x07
    1268:	16 82       	std	Z+6, r1	; 0x06
    126a:	83 81       	ldd	r24, Z+3	; 0x03
    126c:	81 ff       	sbrs	r24, 1
    126e:	66 c3       	rjmp	.+1740   	; 0x193c <vfprintf+0x6ea>
    1270:	be 01       	movw	r22, r28
    1272:	6f 5f       	subi	r22, 0xFF	; 255
    1274:	7f 4f       	sbci	r23, 0xFF	; 255
    1276:	4b 01       	movw	r8, r22
    1278:	f7 01       	movw	r30, r14
    127a:	93 81       	ldd	r25, Z+3	; 0x03
    127c:	f1 01       	movw	r30, r2
    127e:	93 fd       	sbrc	r25, 3
    1280:	85 91       	lpm	r24, Z+
    1282:	93 ff       	sbrs	r25, 3
    1284:	81 91       	ld	r24, Z+
    1286:	1f 01       	movw	r2, r30
    1288:	88 23       	and	r24, r24
    128a:	09 f4       	brne	.+2      	; 0x128e <vfprintf+0x3c>
    128c:	53 c3       	rjmp	.+1702   	; 0x1934 <vfprintf+0x6e2>
    128e:	85 32       	cpi	r24, 0x25	; 37
    1290:	39 f4       	brne	.+14     	; 0x12a0 <vfprintf+0x4e>
    1292:	93 fd       	sbrc	r25, 3
    1294:	85 91       	lpm	r24, Z+
    1296:	93 ff       	sbrs	r25, 3
    1298:	81 91       	ld	r24, Z+
    129a:	1f 01       	movw	r2, r30
    129c:	85 32       	cpi	r24, 0x25	; 37
    129e:	39 f4       	brne	.+14     	; 0x12ae <vfprintf+0x5c>
    12a0:	b7 01       	movw	r22, r14
    12a2:	90 e0       	ldi	r25, 0x00	; 0
    12a4:	0e 94 54 10 	call	0x20a8	; 0x20a8 <fputc>
    12a8:	56 01       	movw	r10, r12
    12aa:	65 01       	movw	r12, r10
    12ac:	e5 cf       	rjmp	.-54     	; 0x1278 <vfprintf+0x26>
    12ae:	10 e0       	ldi	r17, 0x00	; 0
    12b0:	51 2c       	mov	r5, r1
    12b2:	20 e0       	ldi	r18, 0x00	; 0
    12b4:	20 32       	cpi	r18, 0x20	; 32
    12b6:	a0 f4       	brcc	.+40     	; 0x12e0 <vfprintf+0x8e>
    12b8:	8b 32       	cpi	r24, 0x2B	; 43
    12ba:	69 f0       	breq	.+26     	; 0x12d6 <vfprintf+0x84>
    12bc:	30 f4       	brcc	.+12     	; 0x12ca <vfprintf+0x78>
    12be:	80 32       	cpi	r24, 0x20	; 32
    12c0:	59 f0       	breq	.+22     	; 0x12d8 <vfprintf+0x86>
    12c2:	83 32       	cpi	r24, 0x23	; 35
    12c4:	69 f4       	brne	.+26     	; 0x12e0 <vfprintf+0x8e>
    12c6:	20 61       	ori	r18, 0x10	; 16
    12c8:	2c c0       	rjmp	.+88     	; 0x1322 <vfprintf+0xd0>
    12ca:	8d 32       	cpi	r24, 0x2D	; 45
    12cc:	39 f0       	breq	.+14     	; 0x12dc <vfprintf+0x8a>
    12ce:	80 33       	cpi	r24, 0x30	; 48
    12d0:	39 f4       	brne	.+14     	; 0x12e0 <vfprintf+0x8e>
    12d2:	21 60       	ori	r18, 0x01	; 1
    12d4:	26 c0       	rjmp	.+76     	; 0x1322 <vfprintf+0xd0>
    12d6:	22 60       	ori	r18, 0x02	; 2
    12d8:	24 60       	ori	r18, 0x04	; 4
    12da:	23 c0       	rjmp	.+70     	; 0x1322 <vfprintf+0xd0>
    12dc:	28 60       	ori	r18, 0x08	; 8
    12de:	21 c0       	rjmp	.+66     	; 0x1322 <vfprintf+0xd0>
    12e0:	27 fd       	sbrc	r18, 7
    12e2:	27 c0       	rjmp	.+78     	; 0x1332 <vfprintf+0xe0>
    12e4:	30 ed       	ldi	r19, 0xD0	; 208
    12e6:	38 0f       	add	r19, r24
    12e8:	3a 30       	cpi	r19, 0x0A	; 10
    12ea:	78 f4       	brcc	.+30     	; 0x130a <vfprintf+0xb8>
    12ec:	26 ff       	sbrs	r18, 6
    12ee:	06 c0       	rjmp	.+12     	; 0x12fc <vfprintf+0xaa>
    12f0:	fa e0       	ldi	r31, 0x0A	; 10
    12f2:	1f 9f       	mul	r17, r31
    12f4:	30 0d       	add	r19, r0
    12f6:	11 24       	eor	r1, r1
    12f8:	13 2f       	mov	r17, r19
    12fa:	13 c0       	rjmp	.+38     	; 0x1322 <vfprintf+0xd0>
    12fc:	6a e0       	ldi	r22, 0x0A	; 10
    12fe:	56 9e       	mul	r5, r22
    1300:	30 0d       	add	r19, r0
    1302:	11 24       	eor	r1, r1
    1304:	53 2e       	mov	r5, r19
    1306:	20 62       	ori	r18, 0x20	; 32
    1308:	0c c0       	rjmp	.+24     	; 0x1322 <vfprintf+0xd0>
    130a:	8e 32       	cpi	r24, 0x2E	; 46
    130c:	21 f4       	brne	.+8      	; 0x1316 <vfprintf+0xc4>
    130e:	26 fd       	sbrc	r18, 6
    1310:	11 c3       	rjmp	.+1570   	; 0x1934 <vfprintf+0x6e2>
    1312:	20 64       	ori	r18, 0x40	; 64
    1314:	06 c0       	rjmp	.+12     	; 0x1322 <vfprintf+0xd0>
    1316:	8c 36       	cpi	r24, 0x6C	; 108
    1318:	11 f4       	brne	.+4      	; 0x131e <vfprintf+0xcc>
    131a:	20 68       	ori	r18, 0x80	; 128
    131c:	02 c0       	rjmp	.+4      	; 0x1322 <vfprintf+0xd0>
    131e:	88 36       	cpi	r24, 0x68	; 104
    1320:	41 f4       	brne	.+16     	; 0x1332 <vfprintf+0xe0>
    1322:	f1 01       	movw	r30, r2
    1324:	93 fd       	sbrc	r25, 3
    1326:	85 91       	lpm	r24, Z+
    1328:	93 ff       	sbrs	r25, 3
    132a:	81 91       	ld	r24, Z+
    132c:	1f 01       	movw	r2, r30
    132e:	81 11       	cpse	r24, r1
    1330:	c1 cf       	rjmp	.-126    	; 0x12b4 <vfprintf+0x62>
    1332:	9b eb       	ldi	r25, 0xBB	; 187
    1334:	98 0f       	add	r25, r24
    1336:	93 30       	cpi	r25, 0x03	; 3
    1338:	18 f4       	brcc	.+6      	; 0x1340 <vfprintf+0xee>
    133a:	20 61       	ori	r18, 0x10	; 16
    133c:	80 5e       	subi	r24, 0xE0	; 224
    133e:	06 c0       	rjmp	.+12     	; 0x134c <vfprintf+0xfa>
    1340:	9b e9       	ldi	r25, 0x9B	; 155
    1342:	98 0f       	add	r25, r24
    1344:	93 30       	cpi	r25, 0x03	; 3
    1346:	08 f0       	brcs	.+2      	; 0x134a <vfprintf+0xf8>
    1348:	aa c1       	rjmp	.+852    	; 0x169e <vfprintf+0x44c>
    134a:	2f 7e       	andi	r18, 0xEF	; 239
    134c:	26 ff       	sbrs	r18, 6
    134e:	16 e0       	ldi	r17, 0x06	; 6
    1350:	2f 73       	andi	r18, 0x3F	; 63
    1352:	72 2e       	mov	r7, r18
    1354:	85 36       	cpi	r24, 0x65	; 101
    1356:	21 f4       	brne	.+8      	; 0x1360 <vfprintf+0x10e>
    1358:	f2 2f       	mov	r31, r18
    135a:	f0 64       	ori	r31, 0x40	; 64
    135c:	7f 2e       	mov	r7, r31
    135e:	08 c0       	rjmp	.+16     	; 0x1370 <vfprintf+0x11e>
    1360:	86 36       	cpi	r24, 0x66	; 102
    1362:	21 f4       	brne	.+8      	; 0x136c <vfprintf+0x11a>
    1364:	62 2f       	mov	r22, r18
    1366:	60 68       	ori	r22, 0x80	; 128
    1368:	76 2e       	mov	r7, r22
    136a:	02 c0       	rjmp	.+4      	; 0x1370 <vfprintf+0x11e>
    136c:	11 11       	cpse	r17, r1
    136e:	11 50       	subi	r17, 0x01	; 1
    1370:	77 fe       	sbrs	r7, 7
    1372:	07 c0       	rjmp	.+14     	; 0x1382 <vfprintf+0x130>
    1374:	1c 33       	cpi	r17, 0x3C	; 60
    1376:	48 f4       	brcc	.+18     	; 0x138a <vfprintf+0x138>
    1378:	44 24       	eor	r4, r4
    137a:	43 94       	inc	r4
    137c:	41 0e       	add	r4, r17
    137e:	27 e0       	ldi	r18, 0x07	; 7
    1380:	0b c0       	rjmp	.+22     	; 0x1398 <vfprintf+0x146>
    1382:	18 30       	cpi	r17, 0x08	; 8
    1384:	30 f4       	brcc	.+12     	; 0x1392 <vfprintf+0x140>
    1386:	21 2f       	mov	r18, r17
    1388:	06 c0       	rjmp	.+12     	; 0x1396 <vfprintf+0x144>
    138a:	27 e0       	ldi	r18, 0x07	; 7
    138c:	4c e3       	ldi	r20, 0x3C	; 60
    138e:	44 2e       	mov	r4, r20
    1390:	03 c0       	rjmp	.+6      	; 0x1398 <vfprintf+0x146>
    1392:	27 e0       	ldi	r18, 0x07	; 7
    1394:	17 e0       	ldi	r17, 0x07	; 7
    1396:	41 2c       	mov	r4, r1
    1398:	56 01       	movw	r10, r12
    139a:	74 e0       	ldi	r23, 0x04	; 4
    139c:	a7 0e       	add	r10, r23
    139e:	b1 1c       	adc	r11, r1
    13a0:	f6 01       	movw	r30, r12
    13a2:	60 81       	ld	r22, Z
    13a4:	71 81       	ldd	r23, Z+1	; 0x01
    13a6:	82 81       	ldd	r24, Z+2	; 0x02
    13a8:	93 81       	ldd	r25, Z+3	; 0x03
    13aa:	04 2d       	mov	r16, r4
    13ac:	a4 01       	movw	r20, r8
    13ae:	0e 94 05 0f 	call	0x1e0a	; 0x1e0a <__ftoa_engine>
    13b2:	6c 01       	movw	r12, r24
    13b4:	09 81       	ldd	r16, Y+1	; 0x01
    13b6:	00 ff       	sbrs	r16, 0
    13b8:	02 c0       	rjmp	.+4      	; 0x13be <vfprintf+0x16c>
    13ba:	03 ff       	sbrs	r16, 3
    13bc:	06 c0       	rjmp	.+12     	; 0x13ca <vfprintf+0x178>
    13be:	71 fc       	sbrc	r7, 1
    13c0:	07 c0       	rjmp	.+14     	; 0x13d0 <vfprintf+0x17e>
    13c2:	72 fc       	sbrc	r7, 2
    13c4:	08 c0       	rjmp	.+16     	; 0x13d6 <vfprintf+0x184>
    13c6:	61 2c       	mov	r6, r1
    13c8:	08 c0       	rjmp	.+16     	; 0x13da <vfprintf+0x188>
    13ca:	3d e2       	ldi	r19, 0x2D	; 45
    13cc:	63 2e       	mov	r6, r19
    13ce:	05 c0       	rjmp	.+10     	; 0x13da <vfprintf+0x188>
    13d0:	2b e2       	ldi	r18, 0x2B	; 43
    13d2:	62 2e       	mov	r6, r18
    13d4:	02 c0       	rjmp	.+4      	; 0x13da <vfprintf+0x188>
    13d6:	90 e2       	ldi	r25, 0x20	; 32
    13d8:	69 2e       	mov	r6, r25
    13da:	80 2f       	mov	r24, r16
    13dc:	8c 70       	andi	r24, 0x0C	; 12
    13de:	99 f1       	breq	.+102    	; 0x1446 <vfprintf+0x1f4>
    13e0:	66 20       	and	r6, r6
    13e2:	11 f0       	breq	.+4      	; 0x13e8 <vfprintf+0x196>
    13e4:	84 e0       	ldi	r24, 0x04	; 4
    13e6:	01 c0       	rjmp	.+2      	; 0x13ea <vfprintf+0x198>
    13e8:	83 e0       	ldi	r24, 0x03	; 3
    13ea:	85 15       	cp	r24, r5
    13ec:	10 f0       	brcs	.+4      	; 0x13f2 <vfprintf+0x1a0>
    13ee:	51 2c       	mov	r5, r1
    13f0:	0b c0       	rjmp	.+22     	; 0x1408 <vfprintf+0x1b6>
    13f2:	58 1a       	sub	r5, r24
    13f4:	73 fc       	sbrc	r7, 3
    13f6:	08 c0       	rjmp	.+16     	; 0x1408 <vfprintf+0x1b6>
    13f8:	b7 01       	movw	r22, r14
    13fa:	80 e2       	ldi	r24, 0x20	; 32
    13fc:	90 e0       	ldi	r25, 0x00	; 0
    13fe:	0e 94 54 10 	call	0x20a8	; 0x20a8 <fputc>
    1402:	5a 94       	dec	r5
    1404:	c9 f7       	brne	.-14     	; 0x13f8 <vfprintf+0x1a6>
    1406:	f3 cf       	rjmp	.-26     	; 0x13ee <vfprintf+0x19c>
    1408:	66 20       	and	r6, r6
    140a:	29 f0       	breq	.+10     	; 0x1416 <vfprintf+0x1c4>
    140c:	b7 01       	movw	r22, r14
    140e:	86 2d       	mov	r24, r6
    1410:	90 e0       	ldi	r25, 0x00	; 0
    1412:	0e 94 54 10 	call	0x20a8	; 0x20a8 <fputc>
    1416:	03 fd       	sbrc	r16, 3
    1418:	03 c0       	rjmp	.+6      	; 0x1420 <vfprintf+0x1ce>
    141a:	0a e8       	ldi	r16, 0x8A	; 138
    141c:	11 e0       	ldi	r17, 0x01	; 1
    141e:	02 c0       	rjmp	.+4      	; 0x1424 <vfprintf+0x1d2>
    1420:	06 e8       	ldi	r16, 0x86	; 134
    1422:	11 e0       	ldi	r17, 0x01	; 1
    1424:	f7 2d       	mov	r31, r7
    1426:	f0 71       	andi	r31, 0x10	; 16
    1428:	7f 2e       	mov	r7, r31
    142a:	f8 01       	movw	r30, r16
    142c:	84 91       	lpm	r24, Z
    142e:	88 23       	and	r24, r24
    1430:	09 f4       	brne	.+2      	; 0x1434 <vfprintf+0x1e2>
    1432:	76 c2       	rjmp	.+1260   	; 0x1920 <vfprintf+0x6ce>
    1434:	71 10       	cpse	r7, r1
    1436:	80 52       	subi	r24, 0x20	; 32
    1438:	b7 01       	movw	r22, r14
    143a:	90 e0       	ldi	r25, 0x00	; 0
    143c:	0e 94 54 10 	call	0x20a8	; 0x20a8 <fputc>
    1440:	0f 5f       	subi	r16, 0xFF	; 255
    1442:	1f 4f       	sbci	r17, 0xFF	; 255
    1444:	f2 cf       	rjmp	.-28     	; 0x142a <vfprintf+0x1d8>
    1446:	77 fe       	sbrs	r7, 7
    1448:	0f c0       	rjmp	.+30     	; 0x1468 <vfprintf+0x216>
    144a:	4c 0c       	add	r4, r12
    144c:	04 ff       	sbrs	r16, 4
    144e:	04 c0       	rjmp	.+8      	; 0x1458 <vfprintf+0x206>
    1450:	8a 81       	ldd	r24, Y+2	; 0x02
    1452:	81 33       	cpi	r24, 0x31	; 49
    1454:	09 f4       	brne	.+2      	; 0x1458 <vfprintf+0x206>
    1456:	4a 94       	dec	r4
    1458:	14 14       	cp	r1, r4
    145a:	74 f5       	brge	.+92     	; 0x14b8 <vfprintf+0x266>
    145c:	f8 e0       	ldi	r31, 0x08	; 8
    145e:	f4 15       	cp	r31, r4
    1460:	78 f5       	brcc	.+94     	; 0x14c0 <vfprintf+0x26e>
    1462:	88 e0       	ldi	r24, 0x08	; 8
    1464:	48 2e       	mov	r4, r24
    1466:	2c c0       	rjmp	.+88     	; 0x14c0 <vfprintf+0x26e>
    1468:	76 fc       	sbrc	r7, 6
    146a:	2a c0       	rjmp	.+84     	; 0x14c0 <vfprintf+0x26e>
    146c:	81 2f       	mov	r24, r17
    146e:	90 e0       	ldi	r25, 0x00	; 0
    1470:	8c 15       	cp	r24, r12
    1472:	9d 05       	cpc	r25, r13
    1474:	9c f0       	brlt	.+38     	; 0x149c <vfprintf+0x24a>
    1476:	6c ef       	ldi	r22, 0xFC	; 252
    1478:	c6 16       	cp	r12, r22
    147a:	6f ef       	ldi	r22, 0xFF	; 255
    147c:	d6 06       	cpc	r13, r22
    147e:	74 f0       	brlt	.+28     	; 0x149c <vfprintf+0x24a>
    1480:	77 2d       	mov	r23, r7
    1482:	70 68       	ori	r23, 0x80	; 128
    1484:	77 2e       	mov	r7, r23
    1486:	0a c0       	rjmp	.+20     	; 0x149c <vfprintf+0x24a>
    1488:	e2 e0       	ldi	r30, 0x02	; 2
    148a:	f0 e0       	ldi	r31, 0x00	; 0
    148c:	ec 0f       	add	r30, r28
    148e:	fd 1f       	adc	r31, r29
    1490:	e1 0f       	add	r30, r17
    1492:	f1 1d       	adc	r31, r1
    1494:	80 81       	ld	r24, Z
    1496:	80 33       	cpi	r24, 0x30	; 48
    1498:	19 f4       	brne	.+6      	; 0x14a0 <vfprintf+0x24e>
    149a:	11 50       	subi	r17, 0x01	; 1
    149c:	11 11       	cpse	r17, r1
    149e:	f4 cf       	rjmp	.-24     	; 0x1488 <vfprintf+0x236>
    14a0:	77 fe       	sbrs	r7, 7
    14a2:	0e c0       	rjmp	.+28     	; 0x14c0 <vfprintf+0x26e>
    14a4:	44 24       	eor	r4, r4
    14a6:	43 94       	inc	r4
    14a8:	41 0e       	add	r4, r17
    14aa:	81 2f       	mov	r24, r17
    14ac:	90 e0       	ldi	r25, 0x00	; 0
    14ae:	c8 16       	cp	r12, r24
    14b0:	d9 06       	cpc	r13, r25
    14b2:	2c f4       	brge	.+10     	; 0x14be <vfprintf+0x26c>
    14b4:	1c 19       	sub	r17, r12
    14b6:	04 c0       	rjmp	.+8      	; 0x14c0 <vfprintf+0x26e>
    14b8:	44 24       	eor	r4, r4
    14ba:	43 94       	inc	r4
    14bc:	01 c0       	rjmp	.+2      	; 0x14c0 <vfprintf+0x26e>
    14be:	10 e0       	ldi	r17, 0x00	; 0
    14c0:	77 fe       	sbrs	r7, 7
    14c2:	07 c0       	rjmp	.+14     	; 0x14d2 <vfprintf+0x280>
    14c4:	1c 14       	cp	r1, r12
    14c6:	1d 04       	cpc	r1, r13
    14c8:	3c f4       	brge	.+14     	; 0x14d8 <vfprintf+0x286>
    14ca:	96 01       	movw	r18, r12
    14cc:	2f 5f       	subi	r18, 0xFF	; 255
    14ce:	3f 4f       	sbci	r19, 0xFF	; 255
    14d0:	05 c0       	rjmp	.+10     	; 0x14dc <vfprintf+0x28a>
    14d2:	25 e0       	ldi	r18, 0x05	; 5
    14d4:	30 e0       	ldi	r19, 0x00	; 0
    14d6:	02 c0       	rjmp	.+4      	; 0x14dc <vfprintf+0x28a>
    14d8:	21 e0       	ldi	r18, 0x01	; 1
    14da:	30 e0       	ldi	r19, 0x00	; 0
    14dc:	66 20       	and	r6, r6
    14de:	11 f0       	breq	.+4      	; 0x14e4 <vfprintf+0x292>
    14e0:	2f 5f       	subi	r18, 0xFF	; 255
    14e2:	3f 4f       	sbci	r19, 0xFF	; 255
    14e4:	11 23       	and	r17, r17
    14e6:	31 f0       	breq	.+12     	; 0x14f4 <vfprintf+0x2a2>
    14e8:	41 2f       	mov	r20, r17
    14ea:	50 e0       	ldi	r21, 0x00	; 0
    14ec:	4f 5f       	subi	r20, 0xFF	; 255
    14ee:	5f 4f       	sbci	r21, 0xFF	; 255
    14f0:	24 0f       	add	r18, r20
    14f2:	35 1f       	adc	r19, r21
    14f4:	45 2d       	mov	r20, r5
    14f6:	50 e0       	ldi	r21, 0x00	; 0
    14f8:	24 17       	cp	r18, r20
    14fa:	35 07       	cpc	r19, r21
    14fc:	14 f4       	brge	.+4      	; 0x1502 <vfprintf+0x2b0>
    14fe:	52 1a       	sub	r5, r18
    1500:	01 c0       	rjmp	.+2      	; 0x1504 <vfprintf+0x2b2>
    1502:	51 2c       	mov	r5, r1
    1504:	87 2d       	mov	r24, r7
    1506:	89 70       	andi	r24, 0x09	; 9
    1508:	49 f4       	brne	.+18     	; 0x151c <vfprintf+0x2ca>
    150a:	55 20       	and	r5, r5
    150c:	39 f0       	breq	.+14     	; 0x151c <vfprintf+0x2ca>
    150e:	b7 01       	movw	r22, r14
    1510:	80 e2       	ldi	r24, 0x20	; 32
    1512:	90 e0       	ldi	r25, 0x00	; 0
    1514:	0e 94 54 10 	call	0x20a8	; 0x20a8 <fputc>
    1518:	5a 94       	dec	r5
    151a:	f7 cf       	rjmp	.-18     	; 0x150a <vfprintf+0x2b8>
    151c:	66 20       	and	r6, r6
    151e:	29 f0       	breq	.+10     	; 0x152a <vfprintf+0x2d8>
    1520:	b7 01       	movw	r22, r14
    1522:	86 2d       	mov	r24, r6
    1524:	90 e0       	ldi	r25, 0x00	; 0
    1526:	0e 94 54 10 	call	0x20a8	; 0x20a8 <fputc>
    152a:	73 fc       	sbrc	r7, 3
    152c:	09 c0       	rjmp	.+18     	; 0x1540 <vfprintf+0x2ee>
    152e:	55 20       	and	r5, r5
    1530:	39 f0       	breq	.+14     	; 0x1540 <vfprintf+0x2ee>
    1532:	b7 01       	movw	r22, r14
    1534:	80 e3       	ldi	r24, 0x30	; 48
    1536:	90 e0       	ldi	r25, 0x00	; 0
    1538:	0e 94 54 10 	call	0x20a8	; 0x20a8 <fputc>
    153c:	5a 94       	dec	r5
    153e:	f7 cf       	rjmp	.-18     	; 0x152e <vfprintf+0x2dc>
    1540:	77 fe       	sbrs	r7, 7
    1542:	5f c0       	rjmp	.+190    	; 0x1602 <vfprintf+0x3b0>
    1544:	9c 2d       	mov	r25, r12
    1546:	8d 2d       	mov	r24, r13
    1548:	d7 fe       	sbrs	r13, 7
    154a:	02 c0       	rjmp	.+4      	; 0x1550 <vfprintf+0x2fe>
    154c:	90 e0       	ldi	r25, 0x00	; 0
    154e:	80 e0       	ldi	r24, 0x00	; 0
    1550:	69 2e       	mov	r6, r25
    1552:	78 2e       	mov	r7, r24
    1554:	40 e0       	ldi	r20, 0x00	; 0
    1556:	50 e0       	ldi	r21, 0x00	; 0
    1558:	c6 01       	movw	r24, r12
    155a:	84 19       	sub	r24, r4
    155c:	91 09       	sbc	r25, r1
    155e:	9d 87       	std	Y+13, r25	; 0x0d
    1560:	8c 87       	std	Y+12, r24	; 0x0c
    1562:	96 01       	movw	r18, r12
    1564:	26 19       	sub	r18, r6
    1566:	37 09       	sbc	r19, r7
    1568:	28 0d       	add	r18, r8
    156a:	39 1d       	adc	r19, r9
    156c:	81 2f       	mov	r24, r17
    156e:	90 e0       	ldi	r25, 0x00	; 0
    1570:	ee 27       	eor	r30, r30
    1572:	ff 27       	eor	r31, r31
    1574:	e8 1b       	sub	r30, r24
    1576:	f9 0b       	sbc	r31, r25
    1578:	ff 87       	std	Y+15, r31	; 0x0f
    157a:	ee 87       	std	Y+14, r30	; 0x0e
    157c:	ff ef       	ldi	r31, 0xFF	; 255
    157e:	6f 16       	cp	r6, r31
    1580:	7f 06       	cpc	r7, r31
    1582:	69 f4       	brne	.+26     	; 0x159e <vfprintf+0x34c>
    1584:	b7 01       	movw	r22, r14
    1586:	8e e2       	ldi	r24, 0x2E	; 46
    1588:	90 e0       	ldi	r25, 0x00	; 0
    158a:	2b 8b       	std	Y+19, r18	; 0x13
    158c:	3a 8b       	std	Y+18, r19	; 0x12
    158e:	48 8b       	std	Y+16, r20	; 0x10
    1590:	59 8b       	std	Y+17, r21	; 0x11
    1592:	0e 94 54 10 	call	0x20a8	; 0x20a8 <fputc>
    1596:	59 89       	ldd	r21, Y+17	; 0x11
    1598:	48 89       	ldd	r20, Y+16	; 0x10
    159a:	3a 89       	ldd	r19, Y+18	; 0x12
    159c:	2b 89       	ldd	r18, Y+19	; 0x13
    159e:	c6 14       	cp	r12, r6
    15a0:	d7 04       	cpc	r13, r7
    15a2:	54 f0       	brlt	.+20     	; 0x15b8 <vfprintf+0x366>
    15a4:	6c 85       	ldd	r22, Y+12	; 0x0c
    15a6:	7d 85       	ldd	r23, Y+13	; 0x0d
    15a8:	66 15       	cp	r22, r6
    15aa:	77 05       	cpc	r23, r7
    15ac:	2c f4       	brge	.+10     	; 0x15b8 <vfprintf+0x366>
    15ae:	f9 01       	movw	r30, r18
    15b0:	e4 0f       	add	r30, r20
    15b2:	f5 1f       	adc	r31, r21
    15b4:	81 81       	ldd	r24, Z+1	; 0x01
    15b6:	01 c0       	rjmp	.+2      	; 0x15ba <vfprintf+0x368>
    15b8:	80 e3       	ldi	r24, 0x30	; 48
    15ba:	71 e0       	ldi	r23, 0x01	; 1
    15bc:	67 1a       	sub	r6, r23
    15be:	71 08       	sbc	r7, r1
    15c0:	4f 5f       	subi	r20, 0xFF	; 255
    15c2:	5f 4f       	sbci	r21, 0xFF	; 255
    15c4:	ee 85       	ldd	r30, Y+14	; 0x0e
    15c6:	ff 85       	ldd	r31, Y+15	; 0x0f
    15c8:	6e 16       	cp	r6, r30
    15ca:	7f 06       	cpc	r7, r31
    15cc:	6c f0       	brlt	.+26     	; 0x15e8 <vfprintf+0x396>
    15ce:	b7 01       	movw	r22, r14
    15d0:	90 e0       	ldi	r25, 0x00	; 0
    15d2:	2b 8b       	std	Y+19, r18	; 0x13
    15d4:	3a 8b       	std	Y+18, r19	; 0x12
    15d6:	48 8b       	std	Y+16, r20	; 0x10
    15d8:	59 8b       	std	Y+17, r21	; 0x11
    15da:	0e 94 54 10 	call	0x20a8	; 0x20a8 <fputc>
    15de:	2b 89       	ldd	r18, Y+19	; 0x13
    15e0:	3a 89       	ldd	r19, Y+18	; 0x12
    15e2:	48 89       	ldd	r20, Y+16	; 0x10
    15e4:	59 89       	ldd	r21, Y+17	; 0x11
    15e6:	ca cf       	rjmp	.-108    	; 0x157c <vfprintf+0x32a>
    15e8:	6c 14       	cp	r6, r12
    15ea:	7d 04       	cpc	r7, r13
    15ec:	39 f4       	brne	.+14     	; 0x15fc <vfprintf+0x3aa>
    15ee:	9a 81       	ldd	r25, Y+2	; 0x02
    15f0:	96 33       	cpi	r25, 0x36	; 54
    15f2:	18 f4       	brcc	.+6      	; 0x15fa <vfprintf+0x3a8>
    15f4:	95 33       	cpi	r25, 0x35	; 53
    15f6:	11 f4       	brne	.+4      	; 0x15fc <vfprintf+0x3aa>
    15f8:	04 ff       	sbrs	r16, 4
    15fa:	81 e3       	ldi	r24, 0x31	; 49
    15fc:	b7 01       	movw	r22, r14
    15fe:	90 e0       	ldi	r25, 0x00	; 0
    1600:	4b c0       	rjmp	.+150    	; 0x1698 <vfprintf+0x446>
    1602:	8a 81       	ldd	r24, Y+2	; 0x02
    1604:	81 33       	cpi	r24, 0x31	; 49
    1606:	09 f0       	breq	.+2      	; 0x160a <vfprintf+0x3b8>
    1608:	0f 7e       	andi	r16, 0xEF	; 239
    160a:	b7 01       	movw	r22, r14
    160c:	90 e0       	ldi	r25, 0x00	; 0
    160e:	0e 94 54 10 	call	0x20a8	; 0x20a8 <fputc>
    1612:	11 11       	cpse	r17, r1
    1614:	05 c0       	rjmp	.+10     	; 0x1620 <vfprintf+0x3ce>
    1616:	74 fe       	sbrs	r7, 4
    1618:	18 c0       	rjmp	.+48     	; 0x164a <vfprintf+0x3f8>
    161a:	85 e4       	ldi	r24, 0x45	; 69
    161c:	90 e0       	ldi	r25, 0x00	; 0
    161e:	17 c0       	rjmp	.+46     	; 0x164e <vfprintf+0x3fc>
    1620:	b7 01       	movw	r22, r14
    1622:	8e e2       	ldi	r24, 0x2E	; 46
    1624:	90 e0       	ldi	r25, 0x00	; 0
    1626:	0e 94 54 10 	call	0x20a8	; 0x20a8 <fputc>
    162a:	82 e0       	ldi	r24, 0x02	; 2
    162c:	66 24       	eor	r6, r6
    162e:	63 94       	inc	r6
    1630:	68 0e       	add	r6, r24
    1632:	f4 01       	movw	r30, r8
    1634:	e8 0f       	add	r30, r24
    1636:	f1 1d       	adc	r31, r1
    1638:	80 81       	ld	r24, Z
    163a:	b7 01       	movw	r22, r14
    163c:	90 e0       	ldi	r25, 0x00	; 0
    163e:	0e 94 54 10 	call	0x20a8	; 0x20a8 <fputc>
    1642:	11 50       	subi	r17, 0x01	; 1
    1644:	41 f3       	breq	.-48     	; 0x1616 <vfprintf+0x3c4>
    1646:	86 2d       	mov	r24, r6
    1648:	f1 cf       	rjmp	.-30     	; 0x162c <vfprintf+0x3da>
    164a:	85 e6       	ldi	r24, 0x65	; 101
    164c:	90 e0       	ldi	r25, 0x00	; 0
    164e:	b7 01       	movw	r22, r14
    1650:	0e 94 54 10 	call	0x20a8	; 0x20a8 <fputc>
    1654:	d7 fc       	sbrc	r13, 7
    1656:	05 c0       	rjmp	.+10     	; 0x1662 <vfprintf+0x410>
    1658:	c1 14       	cp	r12, r1
    165a:	d1 04       	cpc	r13, r1
    165c:	39 f4       	brne	.+14     	; 0x166c <vfprintf+0x41a>
    165e:	04 ff       	sbrs	r16, 4
    1660:	05 c0       	rjmp	.+10     	; 0x166c <vfprintf+0x41a>
    1662:	d1 94       	neg	r13
    1664:	c1 94       	neg	r12
    1666:	d1 08       	sbc	r13, r1
    1668:	8d e2       	ldi	r24, 0x2D	; 45
    166a:	01 c0       	rjmp	.+2      	; 0x166e <vfprintf+0x41c>
    166c:	8b e2       	ldi	r24, 0x2B	; 43
    166e:	b7 01       	movw	r22, r14
    1670:	90 e0       	ldi	r25, 0x00	; 0
    1672:	0e 94 54 10 	call	0x20a8	; 0x20a8 <fputc>
    1676:	80 e3       	ldi	r24, 0x30	; 48
    1678:	6a e0       	ldi	r22, 0x0A	; 10
    167a:	c6 16       	cp	r12, r22
    167c:	d1 04       	cpc	r13, r1
    167e:	2c f0       	brlt	.+10     	; 0x168a <vfprintf+0x438>
    1680:	8f 5f       	subi	r24, 0xFF	; 255
    1682:	fa e0       	ldi	r31, 0x0A	; 10
    1684:	cf 1a       	sub	r12, r31
    1686:	d1 08       	sbc	r13, r1
    1688:	f7 cf       	rjmp	.-18     	; 0x1678 <vfprintf+0x426>
    168a:	b7 01       	movw	r22, r14
    168c:	90 e0       	ldi	r25, 0x00	; 0
    168e:	0e 94 54 10 	call	0x20a8	; 0x20a8 <fputc>
    1692:	b7 01       	movw	r22, r14
    1694:	c6 01       	movw	r24, r12
    1696:	c0 96       	adiw	r24, 0x30	; 48
    1698:	0e 94 54 10 	call	0x20a8	; 0x20a8 <fputc>
    169c:	41 c1       	rjmp	.+642    	; 0x1920 <vfprintf+0x6ce>
    169e:	83 36       	cpi	r24, 0x63	; 99
    16a0:	31 f0       	breq	.+12     	; 0x16ae <vfprintf+0x45c>
    16a2:	83 37       	cpi	r24, 0x73	; 115
    16a4:	79 f0       	breq	.+30     	; 0x16c4 <vfprintf+0x472>
    16a6:	83 35       	cpi	r24, 0x53	; 83
    16a8:	09 f0       	breq	.+2      	; 0x16ac <vfprintf+0x45a>
    16aa:	58 c0       	rjmp	.+176    	; 0x175c <vfprintf+0x50a>
    16ac:	21 c0       	rjmp	.+66     	; 0x16f0 <vfprintf+0x49e>
    16ae:	56 01       	movw	r10, r12
    16b0:	72 e0       	ldi	r23, 0x02	; 2
    16b2:	a7 0e       	add	r10, r23
    16b4:	b1 1c       	adc	r11, r1
    16b6:	f6 01       	movw	r30, r12
    16b8:	80 81       	ld	r24, Z
    16ba:	89 83       	std	Y+1, r24	; 0x01
    16bc:	01 e0       	ldi	r16, 0x01	; 1
    16be:	10 e0       	ldi	r17, 0x00	; 0
    16c0:	64 01       	movw	r12, r8
    16c2:	14 c0       	rjmp	.+40     	; 0x16ec <vfprintf+0x49a>
    16c4:	56 01       	movw	r10, r12
    16c6:	f2 e0       	ldi	r31, 0x02	; 2
    16c8:	af 0e       	add	r10, r31
    16ca:	b1 1c       	adc	r11, r1
    16cc:	f6 01       	movw	r30, r12
    16ce:	c0 80       	ld	r12, Z
    16d0:	d1 80       	ldd	r13, Z+1	; 0x01
    16d2:	26 ff       	sbrs	r18, 6
    16d4:	03 c0       	rjmp	.+6      	; 0x16dc <vfprintf+0x48a>
    16d6:	61 2f       	mov	r22, r17
    16d8:	70 e0       	ldi	r23, 0x00	; 0
    16da:	02 c0       	rjmp	.+4      	; 0x16e0 <vfprintf+0x48e>
    16dc:	6f ef       	ldi	r22, 0xFF	; 255
    16de:	7f ef       	ldi	r23, 0xFF	; 255
    16e0:	c6 01       	movw	r24, r12
    16e2:	2b 8b       	std	Y+19, r18	; 0x13
    16e4:	0e 94 0b 10 	call	0x2016	; 0x2016 <strnlen>
    16e8:	8c 01       	movw	r16, r24
    16ea:	2b 89       	ldd	r18, Y+19	; 0x13
    16ec:	2f 77       	andi	r18, 0x7F	; 127
    16ee:	15 c0       	rjmp	.+42     	; 0x171a <vfprintf+0x4c8>
    16f0:	56 01       	movw	r10, r12
    16f2:	f2 e0       	ldi	r31, 0x02	; 2
    16f4:	af 0e       	add	r10, r31
    16f6:	b1 1c       	adc	r11, r1
    16f8:	f6 01       	movw	r30, r12
    16fa:	c0 80       	ld	r12, Z
    16fc:	d1 80       	ldd	r13, Z+1	; 0x01
    16fe:	26 ff       	sbrs	r18, 6
    1700:	03 c0       	rjmp	.+6      	; 0x1708 <vfprintf+0x4b6>
    1702:	61 2f       	mov	r22, r17
    1704:	70 e0       	ldi	r23, 0x00	; 0
    1706:	02 c0       	rjmp	.+4      	; 0x170c <vfprintf+0x4ba>
    1708:	6f ef       	ldi	r22, 0xFF	; 255
    170a:	7f ef       	ldi	r23, 0xFF	; 255
    170c:	c6 01       	movw	r24, r12
    170e:	2b 8b       	std	Y+19, r18	; 0x13
    1710:	0e 94 00 10 	call	0x2000	; 0x2000 <strnlen_P>
    1714:	8c 01       	movw	r16, r24
    1716:	2b 89       	ldd	r18, Y+19	; 0x13
    1718:	20 68       	ori	r18, 0x80	; 128
    171a:	72 2e       	mov	r7, r18
    171c:	23 fd       	sbrc	r18, 3
    171e:	1a c0       	rjmp	.+52     	; 0x1754 <vfprintf+0x502>
    1720:	85 2d       	mov	r24, r5
    1722:	90 e0       	ldi	r25, 0x00	; 0
    1724:	08 17       	cp	r16, r24
    1726:	19 07       	cpc	r17, r25
    1728:	a8 f4       	brcc	.+42     	; 0x1754 <vfprintf+0x502>
    172a:	b7 01       	movw	r22, r14
    172c:	80 e2       	ldi	r24, 0x20	; 32
    172e:	90 e0       	ldi	r25, 0x00	; 0
    1730:	0e 94 54 10 	call	0x20a8	; 0x20a8 <fputc>
    1734:	5a 94       	dec	r5
    1736:	f4 cf       	rjmp	.-24     	; 0x1720 <vfprintf+0x4ce>
    1738:	f6 01       	movw	r30, r12
    173a:	77 fc       	sbrc	r7, 7
    173c:	85 91       	lpm	r24, Z+
    173e:	77 fe       	sbrs	r7, 7
    1740:	81 91       	ld	r24, Z+
    1742:	6f 01       	movw	r12, r30
    1744:	b7 01       	movw	r22, r14
    1746:	90 e0       	ldi	r25, 0x00	; 0
    1748:	0e 94 54 10 	call	0x20a8	; 0x20a8 <fputc>
    174c:	51 10       	cpse	r5, r1
    174e:	5a 94       	dec	r5
    1750:	01 50       	subi	r16, 0x01	; 1
    1752:	11 09       	sbc	r17, r1
    1754:	01 15       	cp	r16, r1
    1756:	11 05       	cpc	r17, r1
    1758:	79 f7       	brne	.-34     	; 0x1738 <vfprintf+0x4e6>
    175a:	e2 c0       	rjmp	.+452    	; 0x1920 <vfprintf+0x6ce>
    175c:	84 36       	cpi	r24, 0x64	; 100
    175e:	11 f0       	breq	.+4      	; 0x1764 <vfprintf+0x512>
    1760:	89 36       	cpi	r24, 0x69	; 105
    1762:	51 f5       	brne	.+84     	; 0x17b8 <vfprintf+0x566>
    1764:	56 01       	movw	r10, r12
    1766:	27 ff       	sbrs	r18, 7
    1768:	09 c0       	rjmp	.+18     	; 0x177c <vfprintf+0x52a>
    176a:	f4 e0       	ldi	r31, 0x04	; 4
    176c:	af 0e       	add	r10, r31
    176e:	b1 1c       	adc	r11, r1
    1770:	f6 01       	movw	r30, r12
    1772:	60 81       	ld	r22, Z
    1774:	71 81       	ldd	r23, Z+1	; 0x01
    1776:	82 81       	ldd	r24, Z+2	; 0x02
    1778:	93 81       	ldd	r25, Z+3	; 0x03
    177a:	0a c0       	rjmp	.+20     	; 0x1790 <vfprintf+0x53e>
    177c:	f2 e0       	ldi	r31, 0x02	; 2
    177e:	af 0e       	add	r10, r31
    1780:	b1 1c       	adc	r11, r1
    1782:	f6 01       	movw	r30, r12
    1784:	60 81       	ld	r22, Z
    1786:	71 81       	ldd	r23, Z+1	; 0x01
    1788:	88 27       	eor	r24, r24
    178a:	77 fd       	sbrc	r23, 7
    178c:	80 95       	com	r24
    178e:	98 2f       	mov	r25, r24
    1790:	02 2f       	mov	r16, r18
    1792:	0f 76       	andi	r16, 0x6F	; 111
    1794:	97 ff       	sbrs	r25, 7
    1796:	08 c0       	rjmp	.+16     	; 0x17a8 <vfprintf+0x556>
    1798:	90 95       	com	r25
    179a:	80 95       	com	r24
    179c:	70 95       	com	r23
    179e:	61 95       	neg	r22
    17a0:	7f 4f       	sbci	r23, 0xFF	; 255
    17a2:	8f 4f       	sbci	r24, 0xFF	; 255
    17a4:	9f 4f       	sbci	r25, 0xFF	; 255
    17a6:	00 68       	ori	r16, 0x80	; 128
    17a8:	2a e0       	ldi	r18, 0x0A	; 10
    17aa:	30 e0       	ldi	r19, 0x00	; 0
    17ac:	a4 01       	movw	r20, r8
    17ae:	0e 94 b5 10 	call	0x216a	; 0x216a <__ultoa_invert>
    17b2:	c8 2e       	mov	r12, r24
    17b4:	c8 18       	sub	r12, r8
    17b6:	3e c0       	rjmp	.+124    	; 0x1834 <vfprintf+0x5e2>
    17b8:	02 2f       	mov	r16, r18
    17ba:	85 37       	cpi	r24, 0x75	; 117
    17bc:	21 f4       	brne	.+8      	; 0x17c6 <vfprintf+0x574>
    17be:	0f 7e       	andi	r16, 0xEF	; 239
    17c0:	2a e0       	ldi	r18, 0x0A	; 10
    17c2:	30 e0       	ldi	r19, 0x00	; 0
    17c4:	1d c0       	rjmp	.+58     	; 0x1800 <vfprintf+0x5ae>
    17c6:	09 7f       	andi	r16, 0xF9	; 249
    17c8:	8f 36       	cpi	r24, 0x6F	; 111
    17ca:	91 f0       	breq	.+36     	; 0x17f0 <vfprintf+0x59e>
    17cc:	18 f4       	brcc	.+6      	; 0x17d4 <vfprintf+0x582>
    17ce:	88 35       	cpi	r24, 0x58	; 88
    17d0:	59 f0       	breq	.+22     	; 0x17e8 <vfprintf+0x596>
    17d2:	b0 c0       	rjmp	.+352    	; 0x1934 <vfprintf+0x6e2>
    17d4:	80 37       	cpi	r24, 0x70	; 112
    17d6:	19 f0       	breq	.+6      	; 0x17de <vfprintf+0x58c>
    17d8:	88 37       	cpi	r24, 0x78	; 120
    17da:	11 f0       	breq	.+4      	; 0x17e0 <vfprintf+0x58e>
    17dc:	ab c0       	rjmp	.+342    	; 0x1934 <vfprintf+0x6e2>
    17de:	00 61       	ori	r16, 0x10	; 16
    17e0:	04 ff       	sbrs	r16, 4
    17e2:	09 c0       	rjmp	.+18     	; 0x17f6 <vfprintf+0x5a4>
    17e4:	04 60       	ori	r16, 0x04	; 4
    17e6:	07 c0       	rjmp	.+14     	; 0x17f6 <vfprintf+0x5a4>
    17e8:	24 ff       	sbrs	r18, 4
    17ea:	08 c0       	rjmp	.+16     	; 0x17fc <vfprintf+0x5aa>
    17ec:	06 60       	ori	r16, 0x06	; 6
    17ee:	06 c0       	rjmp	.+12     	; 0x17fc <vfprintf+0x5aa>
    17f0:	28 e0       	ldi	r18, 0x08	; 8
    17f2:	30 e0       	ldi	r19, 0x00	; 0
    17f4:	05 c0       	rjmp	.+10     	; 0x1800 <vfprintf+0x5ae>
    17f6:	20 e1       	ldi	r18, 0x10	; 16
    17f8:	30 e0       	ldi	r19, 0x00	; 0
    17fa:	02 c0       	rjmp	.+4      	; 0x1800 <vfprintf+0x5ae>
    17fc:	20 e1       	ldi	r18, 0x10	; 16
    17fe:	32 e0       	ldi	r19, 0x02	; 2
    1800:	56 01       	movw	r10, r12
    1802:	07 ff       	sbrs	r16, 7
    1804:	09 c0       	rjmp	.+18     	; 0x1818 <vfprintf+0x5c6>
    1806:	f4 e0       	ldi	r31, 0x04	; 4
    1808:	af 0e       	add	r10, r31
    180a:	b1 1c       	adc	r11, r1
    180c:	f6 01       	movw	r30, r12
    180e:	60 81       	ld	r22, Z
    1810:	71 81       	ldd	r23, Z+1	; 0x01
    1812:	82 81       	ldd	r24, Z+2	; 0x02
    1814:	93 81       	ldd	r25, Z+3	; 0x03
    1816:	08 c0       	rjmp	.+16     	; 0x1828 <vfprintf+0x5d6>
    1818:	f2 e0       	ldi	r31, 0x02	; 2
    181a:	af 0e       	add	r10, r31
    181c:	b1 1c       	adc	r11, r1
    181e:	f6 01       	movw	r30, r12
    1820:	60 81       	ld	r22, Z
    1822:	71 81       	ldd	r23, Z+1	; 0x01
    1824:	80 e0       	ldi	r24, 0x00	; 0
    1826:	90 e0       	ldi	r25, 0x00	; 0
    1828:	a4 01       	movw	r20, r8
    182a:	0e 94 b5 10 	call	0x216a	; 0x216a <__ultoa_invert>
    182e:	c8 2e       	mov	r12, r24
    1830:	c8 18       	sub	r12, r8
    1832:	0f 77       	andi	r16, 0x7F	; 127
    1834:	06 ff       	sbrs	r16, 6
    1836:	0b c0       	rjmp	.+22     	; 0x184e <vfprintf+0x5fc>
    1838:	20 2f       	mov	r18, r16
    183a:	2e 7f       	andi	r18, 0xFE	; 254
    183c:	c1 16       	cp	r12, r17
    183e:	50 f4       	brcc	.+20     	; 0x1854 <vfprintf+0x602>
    1840:	04 ff       	sbrs	r16, 4
    1842:	0a c0       	rjmp	.+20     	; 0x1858 <vfprintf+0x606>
    1844:	02 fd       	sbrc	r16, 2
    1846:	08 c0       	rjmp	.+16     	; 0x1858 <vfprintf+0x606>
    1848:	20 2f       	mov	r18, r16
    184a:	2e 7e       	andi	r18, 0xEE	; 238
    184c:	05 c0       	rjmp	.+10     	; 0x1858 <vfprintf+0x606>
    184e:	dc 2c       	mov	r13, r12
    1850:	20 2f       	mov	r18, r16
    1852:	03 c0       	rjmp	.+6      	; 0x185a <vfprintf+0x608>
    1854:	dc 2c       	mov	r13, r12
    1856:	01 c0       	rjmp	.+2      	; 0x185a <vfprintf+0x608>
    1858:	d1 2e       	mov	r13, r17
    185a:	24 ff       	sbrs	r18, 4
    185c:	0d c0       	rjmp	.+26     	; 0x1878 <vfprintf+0x626>
    185e:	fe 01       	movw	r30, r28
    1860:	ec 0d       	add	r30, r12
    1862:	f1 1d       	adc	r31, r1
    1864:	80 81       	ld	r24, Z
    1866:	80 33       	cpi	r24, 0x30	; 48
    1868:	11 f4       	brne	.+4      	; 0x186e <vfprintf+0x61c>
    186a:	29 7e       	andi	r18, 0xE9	; 233
    186c:	09 c0       	rjmp	.+18     	; 0x1880 <vfprintf+0x62e>
    186e:	22 ff       	sbrs	r18, 2
    1870:	06 c0       	rjmp	.+12     	; 0x187e <vfprintf+0x62c>
    1872:	d3 94       	inc	r13
    1874:	d3 94       	inc	r13
    1876:	04 c0       	rjmp	.+8      	; 0x1880 <vfprintf+0x62e>
    1878:	82 2f       	mov	r24, r18
    187a:	86 78       	andi	r24, 0x86	; 134
    187c:	09 f0       	breq	.+2      	; 0x1880 <vfprintf+0x62e>
    187e:	d3 94       	inc	r13
    1880:	23 fd       	sbrc	r18, 3
    1882:	13 c0       	rjmp	.+38     	; 0x18aa <vfprintf+0x658>
    1884:	20 ff       	sbrs	r18, 0
    1886:	06 c0       	rjmp	.+12     	; 0x1894 <vfprintf+0x642>
    1888:	1c 2d       	mov	r17, r12
    188a:	d5 14       	cp	r13, r5
    188c:	18 f4       	brcc	.+6      	; 0x1894 <vfprintf+0x642>
    188e:	15 0d       	add	r17, r5
    1890:	1d 19       	sub	r17, r13
    1892:	d5 2c       	mov	r13, r5
    1894:	d5 14       	cp	r13, r5
    1896:	68 f4       	brcc	.+26     	; 0x18b2 <vfprintf+0x660>
    1898:	b7 01       	movw	r22, r14
    189a:	80 e2       	ldi	r24, 0x20	; 32
    189c:	90 e0       	ldi	r25, 0x00	; 0
    189e:	2b 8b       	std	Y+19, r18	; 0x13
    18a0:	0e 94 54 10 	call	0x20a8	; 0x20a8 <fputc>
    18a4:	d3 94       	inc	r13
    18a6:	2b 89       	ldd	r18, Y+19	; 0x13
    18a8:	f5 cf       	rjmp	.-22     	; 0x1894 <vfprintf+0x642>
    18aa:	d5 14       	cp	r13, r5
    18ac:	10 f4       	brcc	.+4      	; 0x18b2 <vfprintf+0x660>
    18ae:	5d 18       	sub	r5, r13
    18b0:	01 c0       	rjmp	.+2      	; 0x18b4 <vfprintf+0x662>
    18b2:	51 2c       	mov	r5, r1
    18b4:	24 ff       	sbrs	r18, 4
    18b6:	12 c0       	rjmp	.+36     	; 0x18dc <vfprintf+0x68a>
    18b8:	b7 01       	movw	r22, r14
    18ba:	80 e3       	ldi	r24, 0x30	; 48
    18bc:	90 e0       	ldi	r25, 0x00	; 0
    18be:	2b 8b       	std	Y+19, r18	; 0x13
    18c0:	0e 94 54 10 	call	0x20a8	; 0x20a8 <fputc>
    18c4:	2b 89       	ldd	r18, Y+19	; 0x13
    18c6:	22 ff       	sbrs	r18, 2
    18c8:	17 c0       	rjmp	.+46     	; 0x18f8 <vfprintf+0x6a6>
    18ca:	21 ff       	sbrs	r18, 1
    18cc:	03 c0       	rjmp	.+6      	; 0x18d4 <vfprintf+0x682>
    18ce:	88 e5       	ldi	r24, 0x58	; 88
    18d0:	90 e0       	ldi	r25, 0x00	; 0
    18d2:	02 c0       	rjmp	.+4      	; 0x18d8 <vfprintf+0x686>
    18d4:	88 e7       	ldi	r24, 0x78	; 120
    18d6:	90 e0       	ldi	r25, 0x00	; 0
    18d8:	b7 01       	movw	r22, r14
    18da:	0c c0       	rjmp	.+24     	; 0x18f4 <vfprintf+0x6a2>
    18dc:	82 2f       	mov	r24, r18
    18de:	86 78       	andi	r24, 0x86	; 134
    18e0:	59 f0       	breq	.+22     	; 0x18f8 <vfprintf+0x6a6>
    18e2:	21 fd       	sbrc	r18, 1
    18e4:	02 c0       	rjmp	.+4      	; 0x18ea <vfprintf+0x698>
    18e6:	80 e2       	ldi	r24, 0x20	; 32
    18e8:	01 c0       	rjmp	.+2      	; 0x18ec <vfprintf+0x69a>
    18ea:	8b e2       	ldi	r24, 0x2B	; 43
    18ec:	27 fd       	sbrc	r18, 7
    18ee:	8d e2       	ldi	r24, 0x2D	; 45
    18f0:	b7 01       	movw	r22, r14
    18f2:	90 e0       	ldi	r25, 0x00	; 0
    18f4:	0e 94 54 10 	call	0x20a8	; 0x20a8 <fputc>
    18f8:	c1 16       	cp	r12, r17
    18fa:	38 f4       	brcc	.+14     	; 0x190a <vfprintf+0x6b8>
    18fc:	b7 01       	movw	r22, r14
    18fe:	80 e3       	ldi	r24, 0x30	; 48
    1900:	90 e0       	ldi	r25, 0x00	; 0
    1902:	0e 94 54 10 	call	0x20a8	; 0x20a8 <fputc>
    1906:	11 50       	subi	r17, 0x01	; 1
    1908:	f7 cf       	rjmp	.-18     	; 0x18f8 <vfprintf+0x6a6>
    190a:	ca 94       	dec	r12
    190c:	f4 01       	movw	r30, r8
    190e:	ec 0d       	add	r30, r12
    1910:	f1 1d       	adc	r31, r1
    1912:	80 81       	ld	r24, Z
    1914:	b7 01       	movw	r22, r14
    1916:	90 e0       	ldi	r25, 0x00	; 0
    1918:	0e 94 54 10 	call	0x20a8	; 0x20a8 <fputc>
    191c:	c1 10       	cpse	r12, r1
    191e:	f5 cf       	rjmp	.-22     	; 0x190a <vfprintf+0x6b8>
    1920:	55 20       	and	r5, r5
    1922:	09 f4       	brne	.+2      	; 0x1926 <vfprintf+0x6d4>
    1924:	c2 cc       	rjmp	.-1660   	; 0x12aa <vfprintf+0x58>
    1926:	b7 01       	movw	r22, r14
    1928:	80 e2       	ldi	r24, 0x20	; 32
    192a:	90 e0       	ldi	r25, 0x00	; 0
    192c:	0e 94 54 10 	call	0x20a8	; 0x20a8 <fputc>
    1930:	5a 94       	dec	r5
    1932:	f6 cf       	rjmp	.-20     	; 0x1920 <vfprintf+0x6ce>
    1934:	f7 01       	movw	r30, r14
    1936:	86 81       	ldd	r24, Z+6	; 0x06
    1938:	97 81       	ldd	r25, Z+7	; 0x07
    193a:	02 c0       	rjmp	.+4      	; 0x1940 <vfprintf+0x6ee>
    193c:	8f ef       	ldi	r24, 0xFF	; 255
    193e:	9f ef       	ldi	r25, 0xFF	; 255
    1940:	63 96       	adiw	r28, 0x13	; 19
    1942:	e2 e1       	ldi	r30, 0x12	; 18
    1944:	0c 94 c0 0c 	jmp	0x1980	; 0x1980 <__epilogue_restores__>

00001948 <__prologue_saves__>:
    1948:	2f 92       	push	r2
    194a:	3f 92       	push	r3
    194c:	4f 92       	push	r4
    194e:	5f 92       	push	r5
    1950:	6f 92       	push	r6
    1952:	7f 92       	push	r7
    1954:	8f 92       	push	r8
    1956:	9f 92       	push	r9
    1958:	af 92       	push	r10
    195a:	bf 92       	push	r11
    195c:	cf 92       	push	r12
    195e:	df 92       	push	r13
    1960:	ef 92       	push	r14
    1962:	ff 92       	push	r15
    1964:	0f 93       	push	r16
    1966:	1f 93       	push	r17
    1968:	cf 93       	push	r28
    196a:	df 93       	push	r29
    196c:	cd b7       	in	r28, 0x3d	; 61
    196e:	de b7       	in	r29, 0x3e	; 62
    1970:	ca 1b       	sub	r28, r26
    1972:	db 0b       	sbc	r29, r27
    1974:	0f b6       	in	r0, 0x3f	; 63
    1976:	f8 94       	cli
    1978:	de bf       	out	0x3e, r29	; 62
    197a:	0f be       	out	0x3f, r0	; 63
    197c:	cd bf       	out	0x3d, r28	; 61
    197e:	09 94       	ijmp

00001980 <__epilogue_restores__>:
    1980:	2a 88       	ldd	r2, Y+18	; 0x12
    1982:	39 88       	ldd	r3, Y+17	; 0x11
    1984:	48 88       	ldd	r4, Y+16	; 0x10
    1986:	5f 84       	ldd	r5, Y+15	; 0x0f
    1988:	6e 84       	ldd	r6, Y+14	; 0x0e
    198a:	7d 84       	ldd	r7, Y+13	; 0x0d
    198c:	8c 84       	ldd	r8, Y+12	; 0x0c
    198e:	9b 84       	ldd	r9, Y+11	; 0x0b
    1990:	aa 84       	ldd	r10, Y+10	; 0x0a
    1992:	b9 84       	ldd	r11, Y+9	; 0x09
    1994:	c8 84       	ldd	r12, Y+8	; 0x08
    1996:	df 80       	ldd	r13, Y+7	; 0x07
    1998:	ee 80       	ldd	r14, Y+6	; 0x06
    199a:	fd 80       	ldd	r15, Y+5	; 0x05
    199c:	0c 81       	ldd	r16, Y+4	; 0x04
    199e:	1b 81       	ldd	r17, Y+3	; 0x03
    19a0:	aa 81       	ldd	r26, Y+2	; 0x02
    19a2:	b9 81       	ldd	r27, Y+1	; 0x01
    19a4:	ce 0f       	add	r28, r30
    19a6:	d1 1d       	adc	r29, r1
    19a8:	0f b6       	in	r0, 0x3f	; 63
    19aa:	f8 94       	cli
    19ac:	de bf       	out	0x3e, r29	; 62
    19ae:	0f be       	out	0x3f, r0	; 63
    19b0:	cd bf       	out	0x3d, r28	; 61
    19b2:	ed 01       	movw	r28, r26
    19b4:	08 95       	ret

000019b6 <__divsf3>:
    19b6:	0c d0       	rcall	.+24     	; 0x19d0 <__divsf3x>
    19b8:	ba c0       	rjmp	.+372    	; 0x1b2e <__fp_round>
    19ba:	b2 d0       	rcall	.+356    	; 0x1b20 <__fp_pscB>
    19bc:	40 f0       	brcs	.+16     	; 0x19ce <__divsf3+0x18>
    19be:	a9 d0       	rcall	.+338    	; 0x1b12 <__fp_pscA>
    19c0:	30 f0       	brcs	.+12     	; 0x19ce <__divsf3+0x18>
    19c2:	21 f4       	brne	.+8      	; 0x19cc <__divsf3+0x16>
    19c4:	5f 3f       	cpi	r21, 0xFF	; 255
    19c6:	19 f0       	breq	.+6      	; 0x19ce <__divsf3+0x18>
    19c8:	9b c0       	rjmp	.+310    	; 0x1b00 <__fp_inf>
    19ca:	51 11       	cpse	r21, r1
    19cc:	e4 c0       	rjmp	.+456    	; 0x1b96 <__fp_szero>
    19ce:	9e c0       	rjmp	.+316    	; 0x1b0c <__fp_nan>

000019d0 <__divsf3x>:
    19d0:	bf d0       	rcall	.+382    	; 0x1b50 <__fp_split3>
    19d2:	98 f3       	brcs	.-26     	; 0x19ba <__divsf3+0x4>

000019d4 <__divsf3_pse>:
    19d4:	99 23       	and	r25, r25
    19d6:	c9 f3       	breq	.-14     	; 0x19ca <__divsf3+0x14>
    19d8:	55 23       	and	r21, r21
    19da:	b1 f3       	breq	.-20     	; 0x19c8 <__divsf3+0x12>
    19dc:	95 1b       	sub	r25, r21
    19de:	55 0b       	sbc	r21, r21
    19e0:	bb 27       	eor	r27, r27
    19e2:	aa 27       	eor	r26, r26
    19e4:	62 17       	cp	r22, r18
    19e6:	73 07       	cpc	r23, r19
    19e8:	84 07       	cpc	r24, r20
    19ea:	38 f0       	brcs	.+14     	; 0x19fa <__divsf3_pse+0x26>
    19ec:	9f 5f       	subi	r25, 0xFF	; 255
    19ee:	5f 4f       	sbci	r21, 0xFF	; 255
    19f0:	22 0f       	add	r18, r18
    19f2:	33 1f       	adc	r19, r19
    19f4:	44 1f       	adc	r20, r20
    19f6:	aa 1f       	adc	r26, r26
    19f8:	a9 f3       	breq	.-22     	; 0x19e4 <__divsf3_pse+0x10>
    19fa:	33 d0       	rcall	.+102    	; 0x1a62 <__divsf3_pse+0x8e>
    19fc:	0e 2e       	mov	r0, r30
    19fe:	3a f0       	brmi	.+14     	; 0x1a0e <__divsf3_pse+0x3a>
    1a00:	e0 e8       	ldi	r30, 0x80	; 128
    1a02:	30 d0       	rcall	.+96     	; 0x1a64 <__divsf3_pse+0x90>
    1a04:	91 50       	subi	r25, 0x01	; 1
    1a06:	50 40       	sbci	r21, 0x00	; 0
    1a08:	e6 95       	lsr	r30
    1a0a:	00 1c       	adc	r0, r0
    1a0c:	ca f7       	brpl	.-14     	; 0x1a00 <__divsf3_pse+0x2c>
    1a0e:	29 d0       	rcall	.+82     	; 0x1a62 <__divsf3_pse+0x8e>
    1a10:	fe 2f       	mov	r31, r30
    1a12:	27 d0       	rcall	.+78     	; 0x1a62 <__divsf3_pse+0x8e>
    1a14:	66 0f       	add	r22, r22
    1a16:	77 1f       	adc	r23, r23
    1a18:	88 1f       	adc	r24, r24
    1a1a:	bb 1f       	adc	r27, r27
    1a1c:	26 17       	cp	r18, r22
    1a1e:	37 07       	cpc	r19, r23
    1a20:	48 07       	cpc	r20, r24
    1a22:	ab 07       	cpc	r26, r27
    1a24:	b0 e8       	ldi	r27, 0x80	; 128
    1a26:	09 f0       	breq	.+2      	; 0x1a2a <__divsf3_pse+0x56>
    1a28:	bb 0b       	sbc	r27, r27
    1a2a:	80 2d       	mov	r24, r0
    1a2c:	bf 01       	movw	r22, r30
    1a2e:	ff 27       	eor	r31, r31
    1a30:	93 58       	subi	r25, 0x83	; 131
    1a32:	5f 4f       	sbci	r21, 0xFF	; 255
    1a34:	2a f0       	brmi	.+10     	; 0x1a40 <__divsf3_pse+0x6c>
    1a36:	9e 3f       	cpi	r25, 0xFE	; 254
    1a38:	51 05       	cpc	r21, r1
    1a3a:	68 f0       	brcs	.+26     	; 0x1a56 <__divsf3_pse+0x82>
    1a3c:	61 c0       	rjmp	.+194    	; 0x1b00 <__fp_inf>
    1a3e:	ab c0       	rjmp	.+342    	; 0x1b96 <__fp_szero>
    1a40:	5f 3f       	cpi	r21, 0xFF	; 255
    1a42:	ec f3       	brlt	.-6      	; 0x1a3e <__divsf3_pse+0x6a>
    1a44:	98 3e       	cpi	r25, 0xE8	; 232
    1a46:	dc f3       	brlt	.-10     	; 0x1a3e <__divsf3_pse+0x6a>
    1a48:	86 95       	lsr	r24
    1a4a:	77 95       	ror	r23
    1a4c:	67 95       	ror	r22
    1a4e:	b7 95       	ror	r27
    1a50:	f7 95       	ror	r31
    1a52:	9f 5f       	subi	r25, 0xFF	; 255
    1a54:	c9 f7       	brne	.-14     	; 0x1a48 <__divsf3_pse+0x74>
    1a56:	88 0f       	add	r24, r24
    1a58:	91 1d       	adc	r25, r1
    1a5a:	96 95       	lsr	r25
    1a5c:	87 95       	ror	r24
    1a5e:	97 f9       	bld	r25, 7
    1a60:	08 95       	ret
    1a62:	e1 e0       	ldi	r30, 0x01	; 1
    1a64:	66 0f       	add	r22, r22
    1a66:	77 1f       	adc	r23, r23
    1a68:	88 1f       	adc	r24, r24
    1a6a:	bb 1f       	adc	r27, r27
    1a6c:	62 17       	cp	r22, r18
    1a6e:	73 07       	cpc	r23, r19
    1a70:	84 07       	cpc	r24, r20
    1a72:	ba 07       	cpc	r27, r26
    1a74:	20 f0       	brcs	.+8      	; 0x1a7e <__divsf3_pse+0xaa>
    1a76:	62 1b       	sub	r22, r18
    1a78:	73 0b       	sbc	r23, r19
    1a7a:	84 0b       	sbc	r24, r20
    1a7c:	ba 0b       	sbc	r27, r26
    1a7e:	ee 1f       	adc	r30, r30
    1a80:	88 f7       	brcc	.-30     	; 0x1a64 <__divsf3_pse+0x90>
    1a82:	e0 95       	com	r30
    1a84:	08 95       	ret

00001a86 <__floatunsisf>:
    1a86:	e8 94       	clt
    1a88:	09 c0       	rjmp	.+18     	; 0x1a9c <__floatsisf+0x12>

00001a8a <__floatsisf>:
    1a8a:	97 fb       	bst	r25, 7
    1a8c:	3e f4       	brtc	.+14     	; 0x1a9c <__floatsisf+0x12>
    1a8e:	90 95       	com	r25
    1a90:	80 95       	com	r24
    1a92:	70 95       	com	r23
    1a94:	61 95       	neg	r22
    1a96:	7f 4f       	sbci	r23, 0xFF	; 255
    1a98:	8f 4f       	sbci	r24, 0xFF	; 255
    1a9a:	9f 4f       	sbci	r25, 0xFF	; 255
    1a9c:	99 23       	and	r25, r25
    1a9e:	a9 f0       	breq	.+42     	; 0x1aca <__floatsisf+0x40>
    1aa0:	f9 2f       	mov	r31, r25
    1aa2:	96 e9       	ldi	r25, 0x96	; 150
    1aa4:	bb 27       	eor	r27, r27
    1aa6:	93 95       	inc	r25
    1aa8:	f6 95       	lsr	r31
    1aaa:	87 95       	ror	r24
    1aac:	77 95       	ror	r23
    1aae:	67 95       	ror	r22
    1ab0:	b7 95       	ror	r27
    1ab2:	f1 11       	cpse	r31, r1
    1ab4:	f8 cf       	rjmp	.-16     	; 0x1aa6 <__floatsisf+0x1c>
    1ab6:	fa f4       	brpl	.+62     	; 0x1af6 <__floatsisf+0x6c>
    1ab8:	bb 0f       	add	r27, r27
    1aba:	11 f4       	brne	.+4      	; 0x1ac0 <__floatsisf+0x36>
    1abc:	60 ff       	sbrs	r22, 0
    1abe:	1b c0       	rjmp	.+54     	; 0x1af6 <__floatsisf+0x6c>
    1ac0:	6f 5f       	subi	r22, 0xFF	; 255
    1ac2:	7f 4f       	sbci	r23, 0xFF	; 255
    1ac4:	8f 4f       	sbci	r24, 0xFF	; 255
    1ac6:	9f 4f       	sbci	r25, 0xFF	; 255
    1ac8:	16 c0       	rjmp	.+44     	; 0x1af6 <__floatsisf+0x6c>
    1aca:	88 23       	and	r24, r24
    1acc:	11 f0       	breq	.+4      	; 0x1ad2 <__floatsisf+0x48>
    1ace:	96 e9       	ldi	r25, 0x96	; 150
    1ad0:	11 c0       	rjmp	.+34     	; 0x1af4 <__floatsisf+0x6a>
    1ad2:	77 23       	and	r23, r23
    1ad4:	21 f0       	breq	.+8      	; 0x1ade <__floatsisf+0x54>
    1ad6:	9e e8       	ldi	r25, 0x8E	; 142
    1ad8:	87 2f       	mov	r24, r23
    1ada:	76 2f       	mov	r23, r22
    1adc:	05 c0       	rjmp	.+10     	; 0x1ae8 <__floatsisf+0x5e>
    1ade:	66 23       	and	r22, r22
    1ae0:	71 f0       	breq	.+28     	; 0x1afe <__floatsisf+0x74>
    1ae2:	96 e8       	ldi	r25, 0x86	; 134
    1ae4:	86 2f       	mov	r24, r22
    1ae6:	70 e0       	ldi	r23, 0x00	; 0
    1ae8:	60 e0       	ldi	r22, 0x00	; 0
    1aea:	2a f0       	brmi	.+10     	; 0x1af6 <__floatsisf+0x6c>
    1aec:	9a 95       	dec	r25
    1aee:	66 0f       	add	r22, r22
    1af0:	77 1f       	adc	r23, r23
    1af2:	88 1f       	adc	r24, r24
    1af4:	da f7       	brpl	.-10     	; 0x1aec <__floatsisf+0x62>
    1af6:	88 0f       	add	r24, r24
    1af8:	96 95       	lsr	r25
    1afa:	87 95       	ror	r24
    1afc:	97 f9       	bld	r25, 7
    1afe:	08 95       	ret

00001b00 <__fp_inf>:
    1b00:	97 f9       	bld	r25, 7
    1b02:	9f 67       	ori	r25, 0x7F	; 127
    1b04:	80 e8       	ldi	r24, 0x80	; 128
    1b06:	70 e0       	ldi	r23, 0x00	; 0
    1b08:	60 e0       	ldi	r22, 0x00	; 0
    1b0a:	08 95       	ret

00001b0c <__fp_nan>:
    1b0c:	9f ef       	ldi	r25, 0xFF	; 255
    1b0e:	80 ec       	ldi	r24, 0xC0	; 192
    1b10:	08 95       	ret

00001b12 <__fp_pscA>:
    1b12:	00 24       	eor	r0, r0
    1b14:	0a 94       	dec	r0
    1b16:	16 16       	cp	r1, r22
    1b18:	17 06       	cpc	r1, r23
    1b1a:	18 06       	cpc	r1, r24
    1b1c:	09 06       	cpc	r0, r25
    1b1e:	08 95       	ret

00001b20 <__fp_pscB>:
    1b20:	00 24       	eor	r0, r0
    1b22:	0a 94       	dec	r0
    1b24:	12 16       	cp	r1, r18
    1b26:	13 06       	cpc	r1, r19
    1b28:	14 06       	cpc	r1, r20
    1b2a:	05 06       	cpc	r0, r21
    1b2c:	08 95       	ret

00001b2e <__fp_round>:
    1b2e:	09 2e       	mov	r0, r25
    1b30:	03 94       	inc	r0
    1b32:	00 0c       	add	r0, r0
    1b34:	11 f4       	brne	.+4      	; 0x1b3a <__fp_round+0xc>
    1b36:	88 23       	and	r24, r24
    1b38:	52 f0       	brmi	.+20     	; 0x1b4e <__fp_round+0x20>
    1b3a:	bb 0f       	add	r27, r27
    1b3c:	40 f4       	brcc	.+16     	; 0x1b4e <__fp_round+0x20>
    1b3e:	bf 2b       	or	r27, r31
    1b40:	11 f4       	brne	.+4      	; 0x1b46 <__fp_round+0x18>
    1b42:	60 ff       	sbrs	r22, 0
    1b44:	04 c0       	rjmp	.+8      	; 0x1b4e <__fp_round+0x20>
    1b46:	6f 5f       	subi	r22, 0xFF	; 255
    1b48:	7f 4f       	sbci	r23, 0xFF	; 255
    1b4a:	8f 4f       	sbci	r24, 0xFF	; 255
    1b4c:	9f 4f       	sbci	r25, 0xFF	; 255
    1b4e:	08 95       	ret

00001b50 <__fp_split3>:
    1b50:	57 fd       	sbrc	r21, 7
    1b52:	90 58       	subi	r25, 0x80	; 128
    1b54:	44 0f       	add	r20, r20
    1b56:	55 1f       	adc	r21, r21
    1b58:	59 f0       	breq	.+22     	; 0x1b70 <__fp_splitA+0x10>
    1b5a:	5f 3f       	cpi	r21, 0xFF	; 255
    1b5c:	71 f0       	breq	.+28     	; 0x1b7a <__fp_splitA+0x1a>
    1b5e:	47 95       	ror	r20

00001b60 <__fp_splitA>:
    1b60:	88 0f       	add	r24, r24
    1b62:	97 fb       	bst	r25, 7
    1b64:	99 1f       	adc	r25, r25
    1b66:	61 f0       	breq	.+24     	; 0x1b80 <__fp_splitA+0x20>
    1b68:	9f 3f       	cpi	r25, 0xFF	; 255
    1b6a:	79 f0       	breq	.+30     	; 0x1b8a <__fp_splitA+0x2a>
    1b6c:	87 95       	ror	r24
    1b6e:	08 95       	ret
    1b70:	12 16       	cp	r1, r18
    1b72:	13 06       	cpc	r1, r19
    1b74:	14 06       	cpc	r1, r20
    1b76:	55 1f       	adc	r21, r21
    1b78:	f2 cf       	rjmp	.-28     	; 0x1b5e <__fp_split3+0xe>
    1b7a:	46 95       	lsr	r20
    1b7c:	f1 df       	rcall	.-30     	; 0x1b60 <__fp_splitA>
    1b7e:	08 c0       	rjmp	.+16     	; 0x1b90 <__fp_splitA+0x30>
    1b80:	16 16       	cp	r1, r22
    1b82:	17 06       	cpc	r1, r23
    1b84:	18 06       	cpc	r1, r24
    1b86:	99 1f       	adc	r25, r25
    1b88:	f1 cf       	rjmp	.-30     	; 0x1b6c <__fp_splitA+0xc>
    1b8a:	86 95       	lsr	r24
    1b8c:	71 05       	cpc	r23, r1
    1b8e:	61 05       	cpc	r22, r1
    1b90:	08 94       	sec
    1b92:	08 95       	ret

00001b94 <__fp_zero>:
    1b94:	e8 94       	clt

00001b96 <__fp_szero>:
    1b96:	bb 27       	eor	r27, r27
    1b98:	66 27       	eor	r22, r22
    1b9a:	77 27       	eor	r23, r23
    1b9c:	cb 01       	movw	r24, r22
    1b9e:	97 f9       	bld	r25, 7
    1ba0:	08 95       	ret

00001ba2 <strtol>:
    1ba2:	2f 92       	push	r2
    1ba4:	3f 92       	push	r3
    1ba6:	5f 92       	push	r5
    1ba8:	6f 92       	push	r6
    1baa:	7f 92       	push	r7
    1bac:	8f 92       	push	r8
    1bae:	9f 92       	push	r9
    1bb0:	af 92       	push	r10
    1bb2:	bf 92       	push	r11
    1bb4:	cf 92       	push	r12
    1bb6:	df 92       	push	r13
    1bb8:	ef 92       	push	r14
    1bba:	ff 92       	push	r15
    1bbc:	0f 93       	push	r16
    1bbe:	1f 93       	push	r17
    1bc0:	cf 93       	push	r28
    1bc2:	df 93       	push	r29
    1bc4:	8b 01       	movw	r16, r22
    1bc6:	ea 01       	movw	r28, r20
    1bc8:	61 15       	cp	r22, r1
    1bca:	71 05       	cpc	r23, r1
    1bcc:	21 f0       	breq	.+8      	; 0x1bd6 <strtol+0x34>
    1bce:	db 01       	movw	r26, r22
    1bd0:	8c 93       	st	X, r24
    1bd2:	11 96       	adiw	r26, 0x01	; 1
    1bd4:	9c 93       	st	X, r25
    1bd6:	20 97       	sbiw	r28, 0x00	; 0
    1bd8:	39 f0       	breq	.+14     	; 0x1be8 <strtol+0x46>
    1bda:	9e 01       	movw	r18, r28
    1bdc:	22 50       	subi	r18, 0x02	; 2
    1bde:	31 09       	sbc	r19, r1
    1be0:	23 32       	cpi	r18, 0x23	; 35
    1be2:	31 05       	cpc	r19, r1
    1be4:	08 f0       	brcs	.+2      	; 0x1be8 <strtol+0x46>
    1be6:	fb c0       	rjmp	.+502    	; 0x1dde <strtol+0x23c>
    1be8:	7c 01       	movw	r14, r24
    1bea:	67 01       	movw	r12, r14
    1bec:	bf ef       	ldi	r27, 0xFF	; 255
    1bee:	cb 1a       	sub	r12, r27
    1bf0:	db 0a       	sbc	r13, r27
    1bf2:	56 01       	movw	r10, r12
    1bf4:	f7 01       	movw	r30, r14
    1bf6:	60 80       	ld	r6, Z
    1bf8:	86 2d       	mov	r24, r6
    1bfa:	90 e0       	ldi	r25, 0x00	; 0
    1bfc:	0e 94 dd 0f 	call	0x1fba	; 0x1fba <isspace>
    1c00:	89 2b       	or	r24, r25
    1c02:	11 f0       	breq	.+4      	; 0x1c08 <strtol+0x66>
    1c04:	76 01       	movw	r14, r12
    1c06:	f1 cf       	rjmp	.-30     	; 0x1bea <strtol+0x48>
    1c08:	fd e2       	ldi	r31, 0x2D	; 45
    1c0a:	6f 12       	cpse	r6, r31
    1c0c:	0a c0       	rjmp	.+20     	; 0x1c22 <strtol+0x80>
    1c0e:	57 01       	movw	r10, r14
    1c10:	82 e0       	ldi	r24, 0x02	; 2
    1c12:	a8 0e       	add	r10, r24
    1c14:	b1 1c       	adc	r11, r1
    1c16:	d7 01       	movw	r26, r14
    1c18:	11 96       	adiw	r26, 0x01	; 1
    1c1a:	6c 90       	ld	r6, X
    1c1c:	77 24       	eor	r7, r7
    1c1e:	73 94       	inc	r7
    1c20:	0b c0       	rjmp	.+22     	; 0x1c38 <strtol+0x96>
    1c22:	bb e2       	ldi	r27, 0x2B	; 43
    1c24:	6b 12       	cpse	r6, r27
    1c26:	07 c0       	rjmp	.+14     	; 0x1c36 <strtol+0x94>
    1c28:	57 01       	movw	r10, r14
    1c2a:	e2 e0       	ldi	r30, 0x02	; 2
    1c2c:	ae 0e       	add	r10, r30
    1c2e:	b1 1c       	adc	r11, r1
    1c30:	d7 01       	movw	r26, r14
    1c32:	11 96       	adiw	r26, 0x01	; 1
    1c34:	6c 90       	ld	r6, X
    1c36:	71 2c       	mov	r7, r1
    1c38:	ce 01       	movw	r24, r28
    1c3a:	8f 7e       	andi	r24, 0xEF	; 239
    1c3c:	89 2b       	or	r24, r25
    1c3e:	89 f4       	brne	.+34     	; 0x1c62 <strtol+0xc0>
    1c40:	b0 e3       	ldi	r27, 0x30	; 48
    1c42:	6b 12       	cpse	r6, r27
    1c44:	22 c0       	rjmp	.+68     	; 0x1c8a <strtol+0xe8>
    1c46:	f5 01       	movw	r30, r10
    1c48:	80 81       	ld	r24, Z
    1c4a:	8f 7d       	andi	r24, 0xDF	; 223
    1c4c:	88 35       	cpi	r24, 0x58	; 88
    1c4e:	41 f5       	brne	.+80     	; 0x1ca0 <strtol+0xfe>
    1c50:	61 80       	ldd	r6, Z+1	; 0x01
    1c52:	f2 e0       	ldi	r31, 0x02	; 2
    1c54:	af 0e       	add	r10, r31
    1c56:	b1 1c       	adc	r11, r1
    1c58:	87 2d       	mov	r24, r7
    1c5a:	82 60       	ori	r24, 0x02	; 2
    1c5c:	78 2e       	mov	r7, r24
    1c5e:	c0 e1       	ldi	r28, 0x10	; 16
    1c60:	d0 e0       	ldi	r29, 0x00	; 0
    1c62:	c8 30       	cpi	r28, 0x08	; 8
    1c64:	d1 05       	cpc	r29, r1
    1c66:	f1 f0       	breq	.+60     	; 0x1ca4 <strtol+0x102>
    1c68:	4c f4       	brge	.+18     	; 0x1c7c <strtol+0xda>
    1c6a:	c2 30       	cpi	r28, 0x02	; 2
    1c6c:	d1 05       	cpc	r29, r1
    1c6e:	11 f5       	brne	.+68     	; 0x1cb4 <strtol+0x112>
    1c70:	c1 2c       	mov	r12, r1
    1c72:	d1 2c       	mov	r13, r1
    1c74:	e1 2c       	mov	r14, r1
    1c76:	b0 e4       	ldi	r27, 0x40	; 64
    1c78:	fb 2e       	mov	r15, r27
    1c7a:	2f c0       	rjmp	.+94     	; 0x1cda <strtol+0x138>
    1c7c:	ca 30       	cpi	r28, 0x0A	; 10
    1c7e:	d1 05       	cpc	r29, r1
    1c80:	31 f0       	breq	.+12     	; 0x1c8e <strtol+0xec>
    1c82:	c0 31       	cpi	r28, 0x10	; 16
    1c84:	d1 05       	cpc	r29, r1
    1c86:	21 f1       	breq	.+72     	; 0x1cd0 <strtol+0x12e>
    1c88:	15 c0       	rjmp	.+42     	; 0x1cb4 <strtol+0x112>
    1c8a:	20 97       	sbiw	r28, 0x00	; 0
    1c8c:	51 f7       	brne	.-44     	; 0x1c62 <strtol+0xc0>
    1c8e:	ca e0       	ldi	r28, 0x0A	; 10
    1c90:	d0 e0       	ldi	r29, 0x00	; 0
    1c92:	ac ec       	ldi	r26, 0xCC	; 204
    1c94:	ca 2e       	mov	r12, r26
    1c96:	dc 2c       	mov	r13, r12
    1c98:	ec 2c       	mov	r14, r12
    1c9a:	ac e0       	ldi	r26, 0x0C	; 12
    1c9c:	fa 2e       	mov	r15, r26
    1c9e:	1d c0       	rjmp	.+58     	; 0x1cda <strtol+0x138>
    1ca0:	20 97       	sbiw	r28, 0x00	; 0
    1ca2:	f9 f6       	brne	.-66     	; 0x1c62 <strtol+0xc0>
    1ca4:	c8 e0       	ldi	r28, 0x08	; 8
    1ca6:	d0 e0       	ldi	r29, 0x00	; 0
    1ca8:	c1 2c       	mov	r12, r1
    1caa:	d1 2c       	mov	r13, r1
    1cac:	e1 2c       	mov	r14, r1
    1cae:	f0 e1       	ldi	r31, 0x10	; 16
    1cb0:	ff 2e       	mov	r15, r31
    1cb2:	13 c0       	rjmp	.+38     	; 0x1cda <strtol+0x138>
    1cb4:	60 e0       	ldi	r22, 0x00	; 0
    1cb6:	70 e0       	ldi	r23, 0x00	; 0
    1cb8:	80 e0       	ldi	r24, 0x00	; 0
    1cba:	90 e8       	ldi	r25, 0x80	; 128
    1cbc:	9e 01       	movw	r18, r28
    1cbe:	44 27       	eor	r20, r20
    1cc0:	37 fd       	sbrc	r19, 7
    1cc2:	40 95       	com	r20
    1cc4:	54 2f       	mov	r21, r20
    1cc6:	0e 94 ff 13 	call	0x27fe	; 0x27fe <__udivmodsi4>
    1cca:	69 01       	movw	r12, r18
    1ccc:	7a 01       	movw	r14, r20
    1cce:	05 c0       	rjmp	.+10     	; 0x1cda <strtol+0x138>
    1cd0:	c1 2c       	mov	r12, r1
    1cd2:	d1 2c       	mov	r13, r1
    1cd4:	e1 2c       	mov	r14, r1
    1cd6:	e8 e0       	ldi	r30, 0x08	; 8
    1cd8:	fe 2e       	mov	r15, r30
    1cda:	f5 01       	movw	r30, r10
    1cdc:	60 e0       	ldi	r22, 0x00	; 0
    1cde:	20 e0       	ldi	r18, 0x00	; 0
    1ce0:	30 e0       	ldi	r19, 0x00	; 0
    1ce2:	a9 01       	movw	r20, r18
    1ce4:	4e 01       	movw	r8, r28
    1ce6:	aa 24       	eor	r10, r10
    1ce8:	97 fc       	sbrc	r9, 7
    1cea:	a0 94       	com	r10
    1cec:	ba 2c       	mov	r11, r10
    1cee:	1f 01       	movw	r2, r30
    1cf0:	70 ed       	ldi	r23, 0xD0	; 208
    1cf2:	57 2e       	mov	r5, r23
    1cf4:	56 0c       	add	r5, r6
    1cf6:	a9 e0       	ldi	r26, 0x09	; 9
    1cf8:	a5 15       	cp	r26, r5
    1cfa:	70 f4       	brcc	.+28     	; 0x1d18 <strtol+0x176>
    1cfc:	8f eb       	ldi	r24, 0xBF	; 191
    1cfe:	86 0d       	add	r24, r6
    1d00:	8a 31       	cpi	r24, 0x1A	; 26
    1d02:	18 f4       	brcc	.+6      	; 0x1d0a <strtol+0x168>
    1d04:	99 ec       	ldi	r25, 0xC9	; 201
    1d06:	59 2e       	mov	r5, r25
    1d08:	06 c0       	rjmp	.+12     	; 0x1d16 <strtol+0x174>
    1d0a:	8f e9       	ldi	r24, 0x9F	; 159
    1d0c:	86 0d       	add	r24, r6
    1d0e:	8a 31       	cpi	r24, 0x1A	; 26
    1d10:	30 f5       	brcc	.+76     	; 0x1d5e <strtol+0x1bc>
    1d12:	89 ea       	ldi	r24, 0xA9	; 169
    1d14:	58 2e       	mov	r5, r24
    1d16:	56 0c       	add	r5, r6
    1d18:	85 2d       	mov	r24, r5
    1d1a:	90 e0       	ldi	r25, 0x00	; 0
    1d1c:	8c 17       	cp	r24, r28
    1d1e:	9d 07       	cpc	r25, r29
    1d20:	f4 f4       	brge	.+60     	; 0x1d5e <strtol+0x1bc>
    1d22:	67 fd       	sbrc	r22, 7
    1d24:	18 c0       	rjmp	.+48     	; 0x1d56 <strtol+0x1b4>
    1d26:	c2 16       	cp	r12, r18
    1d28:	d3 06       	cpc	r13, r19
    1d2a:	e4 06       	cpc	r14, r20
    1d2c:	f5 06       	cpc	r15, r21
    1d2e:	80 f0       	brcs	.+32     	; 0x1d50 <strtol+0x1ae>
    1d30:	c5 01       	movw	r24, r10
    1d32:	b4 01       	movw	r22, r8
    1d34:	0e 94 ef 13 	call	0x27de	; 0x27de <__mulsi3>
    1d38:	9b 01       	movw	r18, r22
    1d3a:	ac 01       	movw	r20, r24
    1d3c:	25 0d       	add	r18, r5
    1d3e:	31 1d       	adc	r19, r1
    1d40:	41 1d       	adc	r20, r1
    1d42:	51 1d       	adc	r21, r1
    1d44:	21 30       	cpi	r18, 0x01	; 1
    1d46:	31 05       	cpc	r19, r1
    1d48:	41 05       	cpc	r20, r1
    1d4a:	b0 e8       	ldi	r27, 0x80	; 128
    1d4c:	5b 07       	cpc	r21, r27
    1d4e:	10 f0       	brcs	.+4      	; 0x1d54 <strtol+0x1b2>
    1d50:	6f ef       	ldi	r22, 0xFF	; 255
    1d52:	01 c0       	rjmp	.+2      	; 0x1d56 <strtol+0x1b4>
    1d54:	61 e0       	ldi	r22, 0x01	; 1
    1d56:	31 96       	adiw	r30, 0x01	; 1
    1d58:	d1 01       	movw	r26, r2
    1d5a:	6c 90       	ld	r6, X
    1d5c:	c8 cf       	rjmp	.-112    	; 0x1cee <strtol+0x14c>
    1d5e:	87 2d       	mov	r24, r7
    1d60:	81 70       	andi	r24, 0x01	; 1
    1d62:	01 15       	cp	r16, r1
    1d64:	11 05       	cpc	r17, r1
    1d66:	71 f0       	breq	.+28     	; 0x1d84 <strtol+0x1e2>
    1d68:	66 23       	and	r22, r22
    1d6a:	29 f0       	breq	.+10     	; 0x1d76 <strtol+0x1d4>
    1d6c:	31 97       	sbiw	r30, 0x01	; 1
    1d6e:	d8 01       	movw	r26, r16
    1d70:	ed 93       	st	X+, r30
    1d72:	fc 93       	st	X, r31
    1d74:	07 c0       	rjmp	.+14     	; 0x1d84 <strtol+0x1e2>
    1d76:	71 fe       	sbrs	r7, 1
    1d78:	19 c0       	rjmp	.+50     	; 0x1dac <strtol+0x20a>
    1d7a:	32 97       	sbiw	r30, 0x02	; 2
    1d7c:	d8 01       	movw	r26, r16
    1d7e:	ed 93       	st	X+, r30
    1d80:	fc 93       	st	X, r31
    1d82:	14 c0       	rjmp	.+40     	; 0x1dac <strtol+0x20a>
    1d84:	67 ff       	sbrs	r22, 7
    1d86:	12 c0       	rjmp	.+36     	; 0x1dac <strtol+0x20a>
    1d88:	88 23       	and	r24, r24
    1d8a:	29 f0       	breq	.+10     	; 0x1d96 <strtol+0x1f4>
    1d8c:	20 e0       	ldi	r18, 0x00	; 0
    1d8e:	30 e0       	ldi	r19, 0x00	; 0
    1d90:	40 e0       	ldi	r20, 0x00	; 0
    1d92:	50 e8       	ldi	r21, 0x80	; 128
    1d94:	04 c0       	rjmp	.+8      	; 0x1d9e <strtol+0x1fc>
    1d96:	2f ef       	ldi	r18, 0xFF	; 255
    1d98:	3f ef       	ldi	r19, 0xFF	; 255
    1d9a:	4f ef       	ldi	r20, 0xFF	; 255
    1d9c:	5f e7       	ldi	r21, 0x7F	; 127
    1d9e:	82 e2       	ldi	r24, 0x22	; 34
    1da0:	90 e0       	ldi	r25, 0x00	; 0
    1da2:	90 93 9c 01 	sts	0x019C, r25
    1da6:	80 93 9b 01 	sts	0x019B, r24
    1daa:	16 c0       	rjmp	.+44     	; 0x1dd8 <strtol+0x236>
    1dac:	88 23       	and	r24, r24
    1dae:	41 f0       	breq	.+16     	; 0x1dc0 <strtol+0x21e>
    1db0:	50 95       	com	r21
    1db2:	40 95       	com	r20
    1db4:	30 95       	com	r19
    1db6:	21 95       	neg	r18
    1db8:	3f 4f       	sbci	r19, 0xFF	; 255
    1dba:	4f 4f       	sbci	r20, 0xFF	; 255
    1dbc:	5f 4f       	sbci	r21, 0xFF	; 255
    1dbe:	0c c0       	rjmp	.+24     	; 0x1dd8 <strtol+0x236>
    1dc0:	57 ff       	sbrs	r21, 7
    1dc2:	0a c0       	rjmp	.+20     	; 0x1dd8 <strtol+0x236>
    1dc4:	82 e2       	ldi	r24, 0x22	; 34
    1dc6:	90 e0       	ldi	r25, 0x00	; 0
    1dc8:	90 93 9c 01 	sts	0x019C, r25
    1dcc:	80 93 9b 01 	sts	0x019B, r24
    1dd0:	2f ef       	ldi	r18, 0xFF	; 255
    1dd2:	3f ef       	ldi	r19, 0xFF	; 255
    1dd4:	4f ef       	ldi	r20, 0xFF	; 255
    1dd6:	5f e7       	ldi	r21, 0x7F	; 127
    1dd8:	b9 01       	movw	r22, r18
    1dda:	ca 01       	movw	r24, r20
    1ddc:	04 c0       	rjmp	.+8      	; 0x1de6 <strtol+0x244>
    1dde:	60 e0       	ldi	r22, 0x00	; 0
    1de0:	70 e0       	ldi	r23, 0x00	; 0
    1de2:	80 e0       	ldi	r24, 0x00	; 0
    1de4:	90 e0       	ldi	r25, 0x00	; 0
    1de6:	df 91       	pop	r29
    1de8:	cf 91       	pop	r28
    1dea:	1f 91       	pop	r17
    1dec:	0f 91       	pop	r16
    1dee:	ff 90       	pop	r15
    1df0:	ef 90       	pop	r14
    1df2:	df 90       	pop	r13
    1df4:	cf 90       	pop	r12
    1df6:	bf 90       	pop	r11
    1df8:	af 90       	pop	r10
    1dfa:	9f 90       	pop	r9
    1dfc:	8f 90       	pop	r8
    1dfe:	7f 90       	pop	r7
    1e00:	6f 90       	pop	r6
    1e02:	5f 90       	pop	r5
    1e04:	3f 90       	pop	r3
    1e06:	2f 90       	pop	r2
    1e08:	08 95       	ret

00001e0a <__ftoa_engine>:
    1e0a:	28 30       	cpi	r18, 0x08	; 8
    1e0c:	08 f0       	brcs	.+2      	; 0x1e10 <__ftoa_engine+0x6>
    1e0e:	27 e0       	ldi	r18, 0x07	; 7
    1e10:	33 27       	eor	r19, r19
    1e12:	da 01       	movw	r26, r20
    1e14:	99 0f       	add	r25, r25
    1e16:	31 1d       	adc	r19, r1
    1e18:	87 fd       	sbrc	r24, 7
    1e1a:	91 60       	ori	r25, 0x01	; 1
    1e1c:	00 96       	adiw	r24, 0x00	; 0
    1e1e:	61 05       	cpc	r22, r1
    1e20:	71 05       	cpc	r23, r1
    1e22:	39 f4       	brne	.+14     	; 0x1e32 <__ftoa_engine+0x28>
    1e24:	32 60       	ori	r19, 0x02	; 2
    1e26:	2e 5f       	subi	r18, 0xFE	; 254
    1e28:	3d 93       	st	X+, r19
    1e2a:	30 e3       	ldi	r19, 0x30	; 48
    1e2c:	2a 95       	dec	r18
    1e2e:	e1 f7       	brne	.-8      	; 0x1e28 <__ftoa_engine+0x1e>
    1e30:	08 95       	ret
    1e32:	9f 3f       	cpi	r25, 0xFF	; 255
    1e34:	30 f0       	brcs	.+12     	; 0x1e42 <__ftoa_engine+0x38>
    1e36:	80 38       	cpi	r24, 0x80	; 128
    1e38:	71 05       	cpc	r23, r1
    1e3a:	61 05       	cpc	r22, r1
    1e3c:	09 f0       	breq	.+2      	; 0x1e40 <__ftoa_engine+0x36>
    1e3e:	3c 5f       	subi	r19, 0xFC	; 252
    1e40:	3c 5f       	subi	r19, 0xFC	; 252
    1e42:	3d 93       	st	X+, r19
    1e44:	91 30       	cpi	r25, 0x01	; 1
    1e46:	08 f0       	brcs	.+2      	; 0x1e4a <__ftoa_engine+0x40>
    1e48:	80 68       	ori	r24, 0x80	; 128
    1e4a:	91 1d       	adc	r25, r1
    1e4c:	df 93       	push	r29
    1e4e:	cf 93       	push	r28
    1e50:	1f 93       	push	r17
    1e52:	0f 93       	push	r16
    1e54:	ff 92       	push	r15
    1e56:	ef 92       	push	r14
    1e58:	19 2f       	mov	r17, r25
    1e5a:	98 7f       	andi	r25, 0xF8	; 248
    1e5c:	96 95       	lsr	r25
    1e5e:	e9 2f       	mov	r30, r25
    1e60:	96 95       	lsr	r25
    1e62:	96 95       	lsr	r25
    1e64:	e9 0f       	add	r30, r25
    1e66:	ff 27       	eor	r31, r31
    1e68:	e8 51       	subi	r30, 0x18	; 24
    1e6a:	fe 4f       	sbci	r31, 0xFE	; 254
    1e6c:	99 27       	eor	r25, r25
    1e6e:	33 27       	eor	r19, r19
    1e70:	ee 24       	eor	r14, r14
    1e72:	ff 24       	eor	r15, r15
    1e74:	a7 01       	movw	r20, r14
    1e76:	e7 01       	movw	r28, r14
    1e78:	05 90       	lpm	r0, Z+
    1e7a:	08 94       	sec
    1e7c:	07 94       	ror	r0
    1e7e:	28 f4       	brcc	.+10     	; 0x1e8a <__ftoa_engine+0x80>
    1e80:	36 0f       	add	r19, r22
    1e82:	e7 1e       	adc	r14, r23
    1e84:	f8 1e       	adc	r15, r24
    1e86:	49 1f       	adc	r20, r25
    1e88:	51 1d       	adc	r21, r1
    1e8a:	66 0f       	add	r22, r22
    1e8c:	77 1f       	adc	r23, r23
    1e8e:	88 1f       	adc	r24, r24
    1e90:	99 1f       	adc	r25, r25
    1e92:	06 94       	lsr	r0
    1e94:	a1 f7       	brne	.-24     	; 0x1e7e <__ftoa_engine+0x74>
    1e96:	05 90       	lpm	r0, Z+
    1e98:	07 94       	ror	r0
    1e9a:	28 f4       	brcc	.+10     	; 0x1ea6 <__ftoa_engine+0x9c>
    1e9c:	e7 0e       	add	r14, r23
    1e9e:	f8 1e       	adc	r15, r24
    1ea0:	49 1f       	adc	r20, r25
    1ea2:	56 1f       	adc	r21, r22
    1ea4:	c1 1d       	adc	r28, r1
    1ea6:	77 0f       	add	r23, r23
    1ea8:	88 1f       	adc	r24, r24
    1eaa:	99 1f       	adc	r25, r25
    1eac:	66 1f       	adc	r22, r22
    1eae:	06 94       	lsr	r0
    1eb0:	a1 f7       	brne	.-24     	; 0x1e9a <__ftoa_engine+0x90>
    1eb2:	05 90       	lpm	r0, Z+
    1eb4:	07 94       	ror	r0
    1eb6:	28 f4       	brcc	.+10     	; 0x1ec2 <__ftoa_engine+0xb8>
    1eb8:	f8 0e       	add	r15, r24
    1eba:	49 1f       	adc	r20, r25
    1ebc:	56 1f       	adc	r21, r22
    1ebe:	c7 1f       	adc	r28, r23
    1ec0:	d1 1d       	adc	r29, r1
    1ec2:	88 0f       	add	r24, r24
    1ec4:	99 1f       	adc	r25, r25
    1ec6:	66 1f       	adc	r22, r22
    1ec8:	77 1f       	adc	r23, r23
    1eca:	06 94       	lsr	r0
    1ecc:	a1 f7       	brne	.-24     	; 0x1eb6 <__ftoa_engine+0xac>
    1ece:	05 90       	lpm	r0, Z+
    1ed0:	07 94       	ror	r0
    1ed2:	20 f4       	brcc	.+8      	; 0x1edc <__ftoa_engine+0xd2>
    1ed4:	49 0f       	add	r20, r25
    1ed6:	56 1f       	adc	r21, r22
    1ed8:	c7 1f       	adc	r28, r23
    1eda:	d8 1f       	adc	r29, r24
    1edc:	99 0f       	add	r25, r25
    1ede:	66 1f       	adc	r22, r22
    1ee0:	77 1f       	adc	r23, r23
    1ee2:	88 1f       	adc	r24, r24
    1ee4:	06 94       	lsr	r0
    1ee6:	a9 f7       	brne	.-22     	; 0x1ed2 <__ftoa_engine+0xc8>
    1ee8:	84 91       	lpm	r24, Z
    1eea:	10 95       	com	r17
    1eec:	17 70       	andi	r17, 0x07	; 7
    1eee:	41 f0       	breq	.+16     	; 0x1f00 <__ftoa_engine+0xf6>
    1ef0:	d6 95       	lsr	r29
    1ef2:	c7 95       	ror	r28
    1ef4:	57 95       	ror	r21
    1ef6:	47 95       	ror	r20
    1ef8:	f7 94       	ror	r15
    1efa:	e7 94       	ror	r14
    1efc:	1a 95       	dec	r17
    1efe:	c1 f7       	brne	.-16     	; 0x1ef0 <__ftoa_engine+0xe6>
    1f00:	ee e8       	ldi	r30, 0x8E	; 142
    1f02:	f1 e0       	ldi	r31, 0x01	; 1
    1f04:	68 94       	set
    1f06:	15 90       	lpm	r1, Z+
    1f08:	15 91       	lpm	r17, Z+
    1f0a:	35 91       	lpm	r19, Z+
    1f0c:	65 91       	lpm	r22, Z+
    1f0e:	95 91       	lpm	r25, Z+
    1f10:	05 90       	lpm	r0, Z+
    1f12:	7f e2       	ldi	r23, 0x2F	; 47
    1f14:	73 95       	inc	r23
    1f16:	e1 18       	sub	r14, r1
    1f18:	f1 0a       	sbc	r15, r17
    1f1a:	43 0b       	sbc	r20, r19
    1f1c:	56 0b       	sbc	r21, r22
    1f1e:	c9 0b       	sbc	r28, r25
    1f20:	d0 09       	sbc	r29, r0
    1f22:	c0 f7       	brcc	.-16     	; 0x1f14 <__ftoa_engine+0x10a>
    1f24:	e1 0c       	add	r14, r1
    1f26:	f1 1e       	adc	r15, r17
    1f28:	43 1f       	adc	r20, r19
    1f2a:	56 1f       	adc	r21, r22
    1f2c:	c9 1f       	adc	r28, r25
    1f2e:	d0 1d       	adc	r29, r0
    1f30:	7e f4       	brtc	.+30     	; 0x1f50 <__ftoa_engine+0x146>
    1f32:	70 33       	cpi	r23, 0x30	; 48
    1f34:	11 f4       	brne	.+4      	; 0x1f3a <__ftoa_engine+0x130>
    1f36:	8a 95       	dec	r24
    1f38:	e6 cf       	rjmp	.-52     	; 0x1f06 <__ftoa_engine+0xfc>
    1f3a:	e8 94       	clt
    1f3c:	01 50       	subi	r16, 0x01	; 1
    1f3e:	30 f0       	brcs	.+12     	; 0x1f4c <__ftoa_engine+0x142>
    1f40:	08 0f       	add	r16, r24
    1f42:	0a f4       	brpl	.+2      	; 0x1f46 <__ftoa_engine+0x13c>
    1f44:	00 27       	eor	r16, r16
    1f46:	02 17       	cp	r16, r18
    1f48:	08 f4       	brcc	.+2      	; 0x1f4c <__ftoa_engine+0x142>
    1f4a:	20 2f       	mov	r18, r16
    1f4c:	23 95       	inc	r18
    1f4e:	02 2f       	mov	r16, r18
    1f50:	7a 33       	cpi	r23, 0x3A	; 58
    1f52:	28 f0       	brcs	.+10     	; 0x1f5e <__ftoa_engine+0x154>
    1f54:	79 e3       	ldi	r23, 0x39	; 57
    1f56:	7d 93       	st	X+, r23
    1f58:	2a 95       	dec	r18
    1f5a:	e9 f7       	brne	.-6      	; 0x1f56 <__ftoa_engine+0x14c>
    1f5c:	10 c0       	rjmp	.+32     	; 0x1f7e <__ftoa_engine+0x174>
    1f5e:	7d 93       	st	X+, r23
    1f60:	2a 95       	dec	r18
    1f62:	89 f6       	brne	.-94     	; 0x1f06 <__ftoa_engine+0xfc>
    1f64:	06 94       	lsr	r0
    1f66:	97 95       	ror	r25
    1f68:	67 95       	ror	r22
    1f6a:	37 95       	ror	r19
    1f6c:	17 95       	ror	r17
    1f6e:	17 94       	ror	r1
    1f70:	e1 18       	sub	r14, r1
    1f72:	f1 0a       	sbc	r15, r17
    1f74:	43 0b       	sbc	r20, r19
    1f76:	56 0b       	sbc	r21, r22
    1f78:	c9 0b       	sbc	r28, r25
    1f7a:	d0 09       	sbc	r29, r0
    1f7c:	98 f0       	brcs	.+38     	; 0x1fa4 <__ftoa_engine+0x19a>
    1f7e:	23 95       	inc	r18
    1f80:	7e 91       	ld	r23, -X
    1f82:	73 95       	inc	r23
    1f84:	7a 33       	cpi	r23, 0x3A	; 58
    1f86:	08 f0       	brcs	.+2      	; 0x1f8a <__ftoa_engine+0x180>
    1f88:	70 e3       	ldi	r23, 0x30	; 48
    1f8a:	7c 93       	st	X, r23
    1f8c:	20 13       	cpse	r18, r16
    1f8e:	b8 f7       	brcc	.-18     	; 0x1f7e <__ftoa_engine+0x174>
    1f90:	7e 91       	ld	r23, -X
    1f92:	70 61       	ori	r23, 0x10	; 16
    1f94:	7d 93       	st	X+, r23
    1f96:	30 f0       	brcs	.+12     	; 0x1fa4 <__ftoa_engine+0x19a>
    1f98:	83 95       	inc	r24
    1f9a:	71 e3       	ldi	r23, 0x31	; 49
    1f9c:	7d 93       	st	X+, r23
    1f9e:	70 e3       	ldi	r23, 0x30	; 48
    1fa0:	2a 95       	dec	r18
    1fa2:	e1 f7       	brne	.-8      	; 0x1f9c <__ftoa_engine+0x192>
    1fa4:	11 24       	eor	r1, r1
    1fa6:	ef 90       	pop	r14
    1fa8:	ff 90       	pop	r15
    1faa:	0f 91       	pop	r16
    1fac:	1f 91       	pop	r17
    1fae:	cf 91       	pop	r28
    1fb0:	df 91       	pop	r29
    1fb2:	99 27       	eor	r25, r25
    1fb4:	87 fd       	sbrc	r24, 7
    1fb6:	90 95       	com	r25
    1fb8:	08 95       	ret

00001fba <isspace>:
    1fba:	91 11       	cpse	r25, r1
    1fbc:	e9 c3       	rjmp	.+2002   	; 0x2790 <__ctype_isfalse>
    1fbe:	80 32       	cpi	r24, 0x20	; 32
    1fc0:	19 f0       	breq	.+6      	; 0x1fc8 <isspace+0xe>
    1fc2:	89 50       	subi	r24, 0x09	; 9
    1fc4:	85 50       	subi	r24, 0x05	; 5
    1fc6:	d0 f7       	brcc	.-12     	; 0x1fbc <isspace+0x2>
    1fc8:	08 95       	ret

00001fca <memcpy_P>:
    1fca:	fb 01       	movw	r30, r22
    1fcc:	dc 01       	movw	r26, r24
    1fce:	02 c0       	rjmp	.+4      	; 0x1fd4 <memcpy_P+0xa>
    1fd0:	05 90       	lpm	r0, Z+
    1fd2:	0d 92       	st	X+, r0
    1fd4:	41 50       	subi	r20, 0x01	; 1
    1fd6:	50 40       	sbci	r21, 0x00	; 0
    1fd8:	d8 f7       	brcc	.-10     	; 0x1fd0 <memcpy_P+0x6>
    1fda:	08 95       	ret

00001fdc <strcmp_P>:
    1fdc:	fb 01       	movw	r30, r22
    1fde:	dc 01       	movw	r26, r24
    1fe0:	8d 91       	ld	r24, X+
    1fe2:	05 90       	lpm	r0, Z+
    1fe4:	80 19       	sub	r24, r0
    1fe6:	01 10       	cpse	r0, r1
    1fe8:	d9 f3       	breq	.-10     	; 0x1fe0 <strcmp_P+0x4>
    1fea:	99 0b       	sbc	r25, r25
    1fec:	08 95       	ret

00001fee <__strlen_P>:
    1fee:	fc 01       	movw	r30, r24
    1ff0:	05 90       	lpm	r0, Z+
    1ff2:	00 20       	and	r0, r0
    1ff4:	e9 f7       	brne	.-6      	; 0x1ff0 <__strlen_P+0x2>
    1ff6:	80 95       	com	r24
    1ff8:	90 95       	com	r25
    1ffa:	8e 0f       	add	r24, r30
    1ffc:	9f 1f       	adc	r25, r31
    1ffe:	08 95       	ret

00002000 <strnlen_P>:
    2000:	fc 01       	movw	r30, r24
    2002:	05 90       	lpm	r0, Z+
    2004:	61 50       	subi	r22, 0x01	; 1
    2006:	70 40       	sbci	r23, 0x00	; 0
    2008:	01 10       	cpse	r0, r1
    200a:	d8 f7       	brcc	.-10     	; 0x2002 <strnlen_P+0x2>
    200c:	80 95       	com	r24
    200e:	90 95       	com	r25
    2010:	8e 0f       	add	r24, r30
    2012:	9f 1f       	adc	r25, r31
    2014:	08 95       	ret

00002016 <strnlen>:
    2016:	fc 01       	movw	r30, r24
    2018:	61 50       	subi	r22, 0x01	; 1
    201a:	70 40       	sbci	r23, 0x00	; 0
    201c:	01 90       	ld	r0, Z+
    201e:	01 10       	cpse	r0, r1
    2020:	d8 f7       	brcc	.-10     	; 0x2018 <strnlen+0x2>
    2022:	80 95       	com	r24
    2024:	90 95       	com	r25
    2026:	8e 0f       	add	r24, r30
    2028:	9f 1f       	adc	r25, r31
    202a:	08 95       	ret

0000202c <fgetc>:
    202c:	cf 93       	push	r28
    202e:	df 93       	push	r29
    2030:	ec 01       	movw	r28, r24
    2032:	2b 81       	ldd	r18, Y+3	; 0x03
    2034:	20 ff       	sbrs	r18, 0
    2036:	33 c0       	rjmp	.+102    	; 0x209e <fgetc+0x72>
    2038:	26 ff       	sbrs	r18, 6
    203a:	0a c0       	rjmp	.+20     	; 0x2050 <fgetc+0x24>
    203c:	2f 7b       	andi	r18, 0xBF	; 191
    203e:	2b 83       	std	Y+3, r18	; 0x03
    2040:	8e 81       	ldd	r24, Y+6	; 0x06
    2042:	9f 81       	ldd	r25, Y+7	; 0x07
    2044:	01 96       	adiw	r24, 0x01	; 1
    2046:	9f 83       	std	Y+7, r25	; 0x07
    2048:	8e 83       	std	Y+6, r24	; 0x06
    204a:	8a 81       	ldd	r24, Y+2	; 0x02
    204c:	90 e0       	ldi	r25, 0x00	; 0
    204e:	29 c0       	rjmp	.+82     	; 0x20a2 <fgetc+0x76>
    2050:	22 ff       	sbrs	r18, 2
    2052:	0f c0       	rjmp	.+30     	; 0x2072 <fgetc+0x46>
    2054:	e8 81       	ld	r30, Y
    2056:	f9 81       	ldd	r31, Y+1	; 0x01
    2058:	80 81       	ld	r24, Z
    205a:	99 27       	eor	r25, r25
    205c:	87 fd       	sbrc	r24, 7
    205e:	90 95       	com	r25
    2060:	00 97       	sbiw	r24, 0x00	; 0
    2062:	19 f4       	brne	.+6      	; 0x206a <fgetc+0x3e>
    2064:	20 62       	ori	r18, 0x20	; 32
    2066:	2b 83       	std	Y+3, r18	; 0x03
    2068:	1a c0       	rjmp	.+52     	; 0x209e <fgetc+0x72>
    206a:	31 96       	adiw	r30, 0x01	; 1
    206c:	f9 83       	std	Y+1, r31	; 0x01
    206e:	e8 83       	st	Y, r30
    2070:	0e c0       	rjmp	.+28     	; 0x208e <fgetc+0x62>
    2072:	ea 85       	ldd	r30, Y+10	; 0x0a
    2074:	fb 85       	ldd	r31, Y+11	; 0x0b
    2076:	09 95       	icall
    2078:	97 ff       	sbrs	r25, 7
    207a:	09 c0       	rjmp	.+18     	; 0x208e <fgetc+0x62>
    207c:	2b 81       	ldd	r18, Y+3	; 0x03
    207e:	01 96       	adiw	r24, 0x01	; 1
    2080:	11 f4       	brne	.+4      	; 0x2086 <fgetc+0x5a>
    2082:	80 e1       	ldi	r24, 0x10	; 16
    2084:	01 c0       	rjmp	.+2      	; 0x2088 <fgetc+0x5c>
    2086:	80 e2       	ldi	r24, 0x20	; 32
    2088:	82 2b       	or	r24, r18
    208a:	8b 83       	std	Y+3, r24	; 0x03
    208c:	08 c0       	rjmp	.+16     	; 0x209e <fgetc+0x72>
    208e:	2e 81       	ldd	r18, Y+6	; 0x06
    2090:	3f 81       	ldd	r19, Y+7	; 0x07
    2092:	2f 5f       	subi	r18, 0xFF	; 255
    2094:	3f 4f       	sbci	r19, 0xFF	; 255
    2096:	3f 83       	std	Y+7, r19	; 0x07
    2098:	2e 83       	std	Y+6, r18	; 0x06
    209a:	99 27       	eor	r25, r25
    209c:	02 c0       	rjmp	.+4      	; 0x20a2 <fgetc+0x76>
    209e:	8f ef       	ldi	r24, 0xFF	; 255
    20a0:	9f ef       	ldi	r25, 0xFF	; 255
    20a2:	df 91       	pop	r29
    20a4:	cf 91       	pop	r28
    20a6:	08 95       	ret

000020a8 <fputc>:
    20a8:	0f 93       	push	r16
    20aa:	1f 93       	push	r17
    20ac:	cf 93       	push	r28
    20ae:	df 93       	push	r29
    20b0:	18 2f       	mov	r17, r24
    20b2:	09 2f       	mov	r16, r25
    20b4:	eb 01       	movw	r28, r22
    20b6:	8b 81       	ldd	r24, Y+3	; 0x03
    20b8:	81 fd       	sbrc	r24, 1
    20ba:	03 c0       	rjmp	.+6      	; 0x20c2 <fputc+0x1a>
    20bc:	8f ef       	ldi	r24, 0xFF	; 255
    20be:	9f ef       	ldi	r25, 0xFF	; 255
    20c0:	20 c0       	rjmp	.+64     	; 0x2102 <fputc+0x5a>
    20c2:	82 ff       	sbrs	r24, 2
    20c4:	10 c0       	rjmp	.+32     	; 0x20e6 <fputc+0x3e>
    20c6:	4e 81       	ldd	r20, Y+6	; 0x06
    20c8:	5f 81       	ldd	r21, Y+7	; 0x07
    20ca:	2c 81       	ldd	r18, Y+4	; 0x04
    20cc:	3d 81       	ldd	r19, Y+5	; 0x05
    20ce:	42 17       	cp	r20, r18
    20d0:	53 07       	cpc	r21, r19
    20d2:	7c f4       	brge	.+30     	; 0x20f2 <fputc+0x4a>
    20d4:	e8 81       	ld	r30, Y
    20d6:	f9 81       	ldd	r31, Y+1	; 0x01
    20d8:	9f 01       	movw	r18, r30
    20da:	2f 5f       	subi	r18, 0xFF	; 255
    20dc:	3f 4f       	sbci	r19, 0xFF	; 255
    20de:	39 83       	std	Y+1, r19	; 0x01
    20e0:	28 83       	st	Y, r18
    20e2:	10 83       	st	Z, r17
    20e4:	06 c0       	rjmp	.+12     	; 0x20f2 <fputc+0x4a>
    20e6:	e8 85       	ldd	r30, Y+8	; 0x08
    20e8:	f9 85       	ldd	r31, Y+9	; 0x09
    20ea:	81 2f       	mov	r24, r17
    20ec:	09 95       	icall
    20ee:	89 2b       	or	r24, r25
    20f0:	29 f7       	brne	.-54     	; 0x20bc <fputc+0x14>
    20f2:	2e 81       	ldd	r18, Y+6	; 0x06
    20f4:	3f 81       	ldd	r19, Y+7	; 0x07
    20f6:	2f 5f       	subi	r18, 0xFF	; 255
    20f8:	3f 4f       	sbci	r19, 0xFF	; 255
    20fa:	3f 83       	std	Y+7, r19	; 0x07
    20fc:	2e 83       	std	Y+6, r18	; 0x06
    20fe:	81 2f       	mov	r24, r17
    2100:	90 2f       	mov	r25, r16
    2102:	df 91       	pop	r29
    2104:	cf 91       	pop	r28
    2106:	1f 91       	pop	r17
    2108:	0f 91       	pop	r16
    210a:	08 95       	ret

0000210c <printf>:
    210c:	a0 e0       	ldi	r26, 0x00	; 0
    210e:	b0 e0       	ldi	r27, 0x00	; 0
    2110:	ec e8       	ldi	r30, 0x8C	; 140
    2112:	f0 e1       	ldi	r31, 0x10	; 16
    2114:	0c 94 b4 0c 	jmp	0x1968	; 0x1968 <__prologue_saves__+0x20>
    2118:	fe 01       	movw	r30, r28
    211a:	35 96       	adiw	r30, 0x05	; 5
    211c:	61 91       	ld	r22, Z+
    211e:	71 91       	ld	r23, Z+
    2120:	af 01       	movw	r20, r30
    2122:	80 91 97 01 	lds	r24, 0x0197
    2126:	90 91 98 01 	lds	r25, 0x0198
    212a:	0e 94 29 09 	call	0x1252	; 0x1252 <vfprintf>
    212e:	e2 e0       	ldi	r30, 0x02	; 2
    2130:	0c 94 d0 0c 	jmp	0x19a0	; 0x19a0 <__epilogue_restores__+0x20>

00002134 <putchar>:
    2134:	60 91 97 01 	lds	r22, 0x0197
    2138:	70 91 98 01 	lds	r23, 0x0198
    213c:	0e 94 54 10 	call	0x20a8	; 0x20a8 <fputc>
    2140:	08 95       	ret

00002142 <scanf>:
    2142:	a0 e0       	ldi	r26, 0x00	; 0
    2144:	b0 e0       	ldi	r27, 0x00	; 0
    2146:	e7 ea       	ldi	r30, 0xA7	; 167
    2148:	f0 e1       	ldi	r31, 0x10	; 16
    214a:	0c 94 b4 0c 	jmp	0x1968	; 0x1968 <__prologue_saves__+0x20>
    214e:	fe 01       	movw	r30, r28
    2150:	35 96       	adiw	r30, 0x05	; 5
    2152:	61 91       	ld	r22, Z+
    2154:	71 91       	ld	r23, Z+
    2156:	af 01       	movw	r20, r30
    2158:	80 91 95 01 	lds	r24, 0x0195
    215c:	90 91 96 01 	lds	r25, 0x0196
    2160:	0e 94 91 12 	call	0x2522	; 0x2522 <vfscanf>
    2164:	e2 e0       	ldi	r30, 0x02	; 2
    2166:	0c 94 d0 0c 	jmp	0x19a0	; 0x19a0 <__epilogue_restores__+0x20>

0000216a <__ultoa_invert>:
    216a:	fa 01       	movw	r30, r20
    216c:	aa 27       	eor	r26, r26
    216e:	28 30       	cpi	r18, 0x08	; 8
    2170:	51 f1       	breq	.+84     	; 0x21c6 <__ultoa_invert+0x5c>
    2172:	20 31       	cpi	r18, 0x10	; 16
    2174:	81 f1       	breq	.+96     	; 0x21d6 <__ultoa_invert+0x6c>
    2176:	e8 94       	clt
    2178:	6f 93       	push	r22
    217a:	6e 7f       	andi	r22, 0xFE	; 254
    217c:	6e 5f       	subi	r22, 0xFE	; 254
    217e:	7f 4f       	sbci	r23, 0xFF	; 255
    2180:	8f 4f       	sbci	r24, 0xFF	; 255
    2182:	9f 4f       	sbci	r25, 0xFF	; 255
    2184:	af 4f       	sbci	r26, 0xFF	; 255
    2186:	b1 e0       	ldi	r27, 0x01	; 1
    2188:	3e d0       	rcall	.+124    	; 0x2206 <__ultoa_invert+0x9c>
    218a:	b4 e0       	ldi	r27, 0x04	; 4
    218c:	3c d0       	rcall	.+120    	; 0x2206 <__ultoa_invert+0x9c>
    218e:	67 0f       	add	r22, r23
    2190:	78 1f       	adc	r23, r24
    2192:	89 1f       	adc	r24, r25
    2194:	9a 1f       	adc	r25, r26
    2196:	a1 1d       	adc	r26, r1
    2198:	68 0f       	add	r22, r24
    219a:	79 1f       	adc	r23, r25
    219c:	8a 1f       	adc	r24, r26
    219e:	91 1d       	adc	r25, r1
    21a0:	a1 1d       	adc	r26, r1
    21a2:	6a 0f       	add	r22, r26
    21a4:	71 1d       	adc	r23, r1
    21a6:	81 1d       	adc	r24, r1
    21a8:	91 1d       	adc	r25, r1
    21aa:	a1 1d       	adc	r26, r1
    21ac:	20 d0       	rcall	.+64     	; 0x21ee <__ultoa_invert+0x84>
    21ae:	09 f4       	brne	.+2      	; 0x21b2 <__ultoa_invert+0x48>
    21b0:	68 94       	set
    21b2:	3f 91       	pop	r19
    21b4:	2a e0       	ldi	r18, 0x0A	; 10
    21b6:	26 9f       	mul	r18, r22
    21b8:	11 24       	eor	r1, r1
    21ba:	30 19       	sub	r19, r0
    21bc:	30 5d       	subi	r19, 0xD0	; 208
    21be:	31 93       	st	Z+, r19
    21c0:	de f6       	brtc	.-74     	; 0x2178 <__ultoa_invert+0xe>
    21c2:	cf 01       	movw	r24, r30
    21c4:	08 95       	ret
    21c6:	46 2f       	mov	r20, r22
    21c8:	47 70       	andi	r20, 0x07	; 7
    21ca:	40 5d       	subi	r20, 0xD0	; 208
    21cc:	41 93       	st	Z+, r20
    21ce:	b3 e0       	ldi	r27, 0x03	; 3
    21d0:	0f d0       	rcall	.+30     	; 0x21f0 <__ultoa_invert+0x86>
    21d2:	c9 f7       	brne	.-14     	; 0x21c6 <__ultoa_invert+0x5c>
    21d4:	f6 cf       	rjmp	.-20     	; 0x21c2 <__ultoa_invert+0x58>
    21d6:	46 2f       	mov	r20, r22
    21d8:	4f 70       	andi	r20, 0x0F	; 15
    21da:	40 5d       	subi	r20, 0xD0	; 208
    21dc:	4a 33       	cpi	r20, 0x3A	; 58
    21de:	18 f0       	brcs	.+6      	; 0x21e6 <__ultoa_invert+0x7c>
    21e0:	49 5d       	subi	r20, 0xD9	; 217
    21e2:	31 fd       	sbrc	r19, 1
    21e4:	40 52       	subi	r20, 0x20	; 32
    21e6:	41 93       	st	Z+, r20
    21e8:	02 d0       	rcall	.+4      	; 0x21ee <__ultoa_invert+0x84>
    21ea:	a9 f7       	brne	.-22     	; 0x21d6 <__ultoa_invert+0x6c>
    21ec:	ea cf       	rjmp	.-44     	; 0x21c2 <__ultoa_invert+0x58>
    21ee:	b4 e0       	ldi	r27, 0x04	; 4
    21f0:	a6 95       	lsr	r26
    21f2:	97 95       	ror	r25
    21f4:	87 95       	ror	r24
    21f6:	77 95       	ror	r23
    21f8:	67 95       	ror	r22
    21fa:	ba 95       	dec	r27
    21fc:	c9 f7       	brne	.-14     	; 0x21f0 <__ultoa_invert+0x86>
    21fe:	00 97       	sbiw	r24, 0x00	; 0
    2200:	61 05       	cpc	r22, r1
    2202:	71 05       	cpc	r23, r1
    2204:	08 95       	ret
    2206:	9b 01       	movw	r18, r22
    2208:	ac 01       	movw	r20, r24
    220a:	0a 2e       	mov	r0, r26
    220c:	06 94       	lsr	r0
    220e:	57 95       	ror	r21
    2210:	47 95       	ror	r20
    2212:	37 95       	ror	r19
    2214:	27 95       	ror	r18
    2216:	ba 95       	dec	r27
    2218:	c9 f7       	brne	.-14     	; 0x220c <__ultoa_invert+0xa2>
    221a:	62 0f       	add	r22, r18
    221c:	73 1f       	adc	r23, r19
    221e:	84 1f       	adc	r24, r20
    2220:	95 1f       	adc	r25, r21
    2222:	a0 1d       	adc	r26, r0
    2224:	08 95       	ret

00002226 <putval>:
    2226:	20 fd       	sbrc	r18, 0
    2228:	09 c0       	rjmp	.+18     	; 0x223c <putval+0x16>
    222a:	fc 01       	movw	r30, r24
    222c:	23 fd       	sbrc	r18, 3
    222e:	05 c0       	rjmp	.+10     	; 0x223a <putval+0x14>
    2230:	22 ff       	sbrs	r18, 2
    2232:	02 c0       	rjmp	.+4      	; 0x2238 <putval+0x12>
    2234:	73 83       	std	Z+3, r23	; 0x03
    2236:	62 83       	std	Z+2, r22	; 0x02
    2238:	51 83       	std	Z+1, r21	; 0x01
    223a:	40 83       	st	Z, r20
    223c:	08 95       	ret

0000223e <mulacc>:
    223e:	44 fd       	sbrc	r20, 4
    2240:	10 c0       	rjmp	.+32     	; 0x2262 <mulacc+0x24>
    2242:	46 fd       	sbrc	r20, 6
    2244:	10 c0       	rjmp	.+32     	; 0x2266 <mulacc+0x28>
    2246:	db 01       	movw	r26, r22
    2248:	fc 01       	movw	r30, r24
    224a:	aa 0f       	add	r26, r26
    224c:	bb 1f       	adc	r27, r27
    224e:	ee 1f       	adc	r30, r30
    2250:	ff 1f       	adc	r31, r31
    2252:	10 94       	com	r1
    2254:	d1 f7       	brne	.-12     	; 0x224a <mulacc+0xc>
    2256:	6a 0f       	add	r22, r26
    2258:	7b 1f       	adc	r23, r27
    225a:	8e 1f       	adc	r24, r30
    225c:	9f 1f       	adc	r25, r31
    225e:	31 e0       	ldi	r19, 0x01	; 1
    2260:	03 c0       	rjmp	.+6      	; 0x2268 <mulacc+0x2a>
    2262:	33 e0       	ldi	r19, 0x03	; 3
    2264:	01 c0       	rjmp	.+2      	; 0x2268 <mulacc+0x2a>
    2266:	34 e0       	ldi	r19, 0x04	; 4
    2268:	66 0f       	add	r22, r22
    226a:	77 1f       	adc	r23, r23
    226c:	88 1f       	adc	r24, r24
    226e:	99 1f       	adc	r25, r25
    2270:	31 50       	subi	r19, 0x01	; 1
    2272:	d1 f7       	brne	.-12     	; 0x2268 <mulacc+0x2a>
    2274:	62 0f       	add	r22, r18
    2276:	71 1d       	adc	r23, r1
    2278:	81 1d       	adc	r24, r1
    227a:	91 1d       	adc	r25, r1
    227c:	08 95       	ret

0000227e <skip_spaces>:
    227e:	0f 93       	push	r16
    2280:	1f 93       	push	r17
    2282:	cf 93       	push	r28
    2284:	df 93       	push	r29
    2286:	8c 01       	movw	r16, r24
    2288:	c8 01       	movw	r24, r16
    228a:	0e 94 16 10 	call	0x202c	; 0x202c <fgetc>
    228e:	ec 01       	movw	r28, r24
    2290:	97 fd       	sbrc	r25, 7
    2292:	08 c0       	rjmp	.+16     	; 0x22a4 <skip_spaces+0x26>
    2294:	0e 94 dd 0f 	call	0x1fba	; 0x1fba <isspace>
    2298:	89 2b       	or	r24, r25
    229a:	b1 f7       	brne	.-20     	; 0x2288 <skip_spaces+0xa>
    229c:	b8 01       	movw	r22, r16
    229e:	ce 01       	movw	r24, r28
    22a0:	0e 94 d6 13 	call	0x27ac	; 0x27ac <ungetc>
    22a4:	ce 01       	movw	r24, r28
    22a6:	df 91       	pop	r29
    22a8:	cf 91       	pop	r28
    22aa:	1f 91       	pop	r17
    22ac:	0f 91       	pop	r16
    22ae:	08 95       	ret

000022b0 <conv_int>:
    22b0:	8f 92       	push	r8
    22b2:	9f 92       	push	r9
    22b4:	af 92       	push	r10
    22b6:	cf 92       	push	r12
    22b8:	df 92       	push	r13
    22ba:	ef 92       	push	r14
    22bc:	ff 92       	push	r15
    22be:	0f 93       	push	r16
    22c0:	1f 93       	push	r17
    22c2:	cf 93       	push	r28
    22c4:	df 93       	push	r29
    22c6:	ec 01       	movw	r28, r24
    22c8:	a6 2e       	mov	r10, r22
    22ca:	4a 01       	movw	r8, r20
    22cc:	02 2f       	mov	r16, r18
    22ce:	0e 94 16 10 	call	0x202c	; 0x202c <fgetc>
    22d2:	ac 01       	movw	r20, r24
    22d4:	55 27       	eor	r21, r21
    22d6:	4b 32       	cpi	r20, 0x2B	; 43
    22d8:	51 05       	cpc	r21, r1
    22da:	21 f0       	breq	.+8      	; 0x22e4 <conv_int+0x34>
    22dc:	4d 32       	cpi	r20, 0x2D	; 45
    22de:	51 05       	cpc	r21, r1
    22e0:	51 f4       	brne	.+20     	; 0x22f6 <conv_int+0x46>
    22e2:	00 68       	ori	r16, 0x80	; 128
    22e4:	aa 94       	dec	r10
    22e6:	11 f4       	brne	.+4      	; 0x22ec <conv_int+0x3c>
    22e8:	80 e0       	ldi	r24, 0x00	; 0
    22ea:	67 c0       	rjmp	.+206    	; 0x23ba <conv_int+0x10a>
    22ec:	ce 01       	movw	r24, r28
    22ee:	0e 94 16 10 	call	0x202c	; 0x202c <fgetc>
    22f2:	97 fd       	sbrc	r25, 7
    22f4:	f9 cf       	rjmp	.-14     	; 0x22e8 <conv_int+0x38>
    22f6:	10 2f       	mov	r17, r16
    22f8:	1d 7f       	andi	r17, 0xFD	; 253
    22fa:	30 2f       	mov	r19, r16
    22fc:	30 73       	andi	r19, 0x30	; 48
    22fe:	01 f5       	brne	.+64     	; 0x2340 <conv_int+0x90>
    2300:	80 33       	cpi	r24, 0x30	; 48
    2302:	f1 f4       	brne	.+60     	; 0x2340 <conv_int+0x90>
    2304:	ff 24       	eor	r15, r15
    2306:	fa 94       	dec	r15
    2308:	fa 0c       	add	r15, r10
    230a:	09 f4       	brne	.+2      	; 0x230e <conv_int+0x5e>
    230c:	42 c0       	rjmp	.+132    	; 0x2392 <conv_int+0xe2>
    230e:	ce 01       	movw	r24, r28
    2310:	0e 94 16 10 	call	0x202c	; 0x202c <fgetc>
    2314:	97 fd       	sbrc	r25, 7
    2316:	3d c0       	rjmp	.+122    	; 0x2392 <conv_int+0xe2>
    2318:	38 2f       	mov	r19, r24
    231a:	3f 7d       	andi	r19, 0xDF	; 223
    231c:	38 35       	cpi	r19, 0x58	; 88
    231e:	51 f4       	brne	.+20     	; 0x2334 <conv_int+0x84>
    2320:	12 64       	ori	r17, 0x42	; 66
    2322:	aa 94       	dec	r10
    2324:	aa 94       	dec	r10
    2326:	a9 f1       	breq	.+106    	; 0x2392 <conv_int+0xe2>
    2328:	ce 01       	movw	r24, r28
    232a:	0e 94 16 10 	call	0x202c	; 0x202c <fgetc>
    232e:	97 ff       	sbrs	r25, 7
    2330:	07 c0       	rjmp	.+14     	; 0x2340 <conv_int+0x90>
    2332:	2f c0       	rjmp	.+94     	; 0x2392 <conv_int+0xe2>
    2334:	06 ff       	sbrs	r16, 6
    2336:	02 c0       	rjmp	.+4      	; 0x233c <conv_int+0x8c>
    2338:	12 60       	ori	r17, 0x02	; 2
    233a:	01 c0       	rjmp	.+2      	; 0x233e <conv_int+0x8e>
    233c:	12 61       	ori	r17, 0x12	; 18
    233e:	af 2c       	mov	r10, r15
    2340:	c1 2c       	mov	r12, r1
    2342:	d1 2c       	mov	r13, r1
    2344:	76 01       	movw	r14, r12
    2346:	20 ed       	ldi	r18, 0xD0	; 208
    2348:	28 0f       	add	r18, r24
    234a:	28 30       	cpi	r18, 0x08	; 8
    234c:	80 f0       	brcs	.+32     	; 0x236e <conv_int+0xbe>
    234e:	14 ff       	sbrs	r17, 4
    2350:	04 c0       	rjmp	.+8      	; 0x235a <conv_int+0xaa>
    2352:	be 01       	movw	r22, r28
    2354:	0e 94 d6 13 	call	0x27ac	; 0x27ac <ungetc>
    2358:	19 c0       	rjmp	.+50     	; 0x238c <conv_int+0xdc>
    235a:	2a 30       	cpi	r18, 0x0A	; 10
    235c:	40 f0       	brcs	.+16     	; 0x236e <conv_int+0xbe>
    235e:	16 ff       	sbrs	r17, 6
    2360:	f8 cf       	rjmp	.-16     	; 0x2352 <conv_int+0xa2>
    2362:	2f 7d       	andi	r18, 0xDF	; 223
    2364:	3f ee       	ldi	r19, 0xEF	; 239
    2366:	32 0f       	add	r19, r18
    2368:	36 30       	cpi	r19, 0x06	; 6
    236a:	98 f7       	brcc	.-26     	; 0x2352 <conv_int+0xa2>
    236c:	27 50       	subi	r18, 0x07	; 7
    236e:	41 2f       	mov	r20, r17
    2370:	c7 01       	movw	r24, r14
    2372:	b6 01       	movw	r22, r12
    2374:	0e 94 1f 11 	call	0x223e	; 0x223e <mulacc>
    2378:	6b 01       	movw	r12, r22
    237a:	7c 01       	movw	r14, r24
    237c:	12 60       	ori	r17, 0x02	; 2
    237e:	aa 94       	dec	r10
    2380:	59 f0       	breq	.+22     	; 0x2398 <conv_int+0xe8>
    2382:	ce 01       	movw	r24, r28
    2384:	0e 94 16 10 	call	0x202c	; 0x202c <fgetc>
    2388:	97 ff       	sbrs	r25, 7
    238a:	dd cf       	rjmp	.-70     	; 0x2346 <conv_int+0x96>
    238c:	11 fd       	sbrc	r17, 1
    238e:	04 c0       	rjmp	.+8      	; 0x2398 <conv_int+0xe8>
    2390:	ab cf       	rjmp	.-170    	; 0x22e8 <conv_int+0x38>
    2392:	c1 2c       	mov	r12, r1
    2394:	d1 2c       	mov	r13, r1
    2396:	76 01       	movw	r14, r12
    2398:	17 ff       	sbrs	r17, 7
    239a:	08 c0       	rjmp	.+16     	; 0x23ac <conv_int+0xfc>
    239c:	f0 94       	com	r15
    239e:	e0 94       	com	r14
    23a0:	d0 94       	com	r13
    23a2:	c0 94       	com	r12
    23a4:	c1 1c       	adc	r12, r1
    23a6:	d1 1c       	adc	r13, r1
    23a8:	e1 1c       	adc	r14, r1
    23aa:	f1 1c       	adc	r15, r1
    23ac:	21 2f       	mov	r18, r17
    23ae:	b7 01       	movw	r22, r14
    23b0:	a6 01       	movw	r20, r12
    23b2:	c4 01       	movw	r24, r8
    23b4:	0e 94 13 11 	call	0x2226	; 0x2226 <putval>
    23b8:	81 e0       	ldi	r24, 0x01	; 1
    23ba:	df 91       	pop	r29
    23bc:	cf 91       	pop	r28
    23be:	1f 91       	pop	r17
    23c0:	0f 91       	pop	r16
    23c2:	ff 90       	pop	r15
    23c4:	ef 90       	pop	r14
    23c6:	df 90       	pop	r13
    23c8:	cf 90       	pop	r12
    23ca:	af 90       	pop	r10
    23cc:	9f 90       	pop	r9
    23ce:	8f 90       	pop	r8
    23d0:	08 95       	ret

000023d2 <conv_brk>:
    23d2:	a1 e2       	ldi	r26, 0x21	; 33
    23d4:	b0 e0       	ldi	r27, 0x00	; 0
    23d6:	ef ee       	ldi	r30, 0xEF	; 239
    23d8:	f1 e1       	ldi	r31, 0x11	; 17
    23da:	0c 94 a9 0c 	jmp	0x1952	; 0x1952 <__prologue_saves__+0xa>
    23de:	5c 01       	movw	r10, r24
    23e0:	7a 01       	movw	r14, r20
    23e2:	8e 01       	movw	r16, r28
    23e4:	0f 5f       	subi	r16, 0xFF	; 255
    23e6:	1f 4f       	sbci	r17, 0xFF	; 255
    23e8:	68 01       	movw	r12, r16
    23ea:	80 e2       	ldi	r24, 0x20	; 32
    23ec:	d8 01       	movw	r26, r16
    23ee:	1d 92       	st	X+, r1
    23f0:	8a 95       	dec	r24
    23f2:	e9 f7       	brne	.-6      	; 0x23ee <conv_brk+0x1c>
    23f4:	f5 01       	movw	r30, r10
    23f6:	73 80       	ldd	r7, Z+3	; 0x03
    23f8:	40 e0       	ldi	r20, 0x00	; 0
    23fa:	50 e0       	ldi	r21, 0x00	; 0
    23fc:	81 2c       	mov	r8, r1
    23fe:	b0 e0       	ldi	r27, 0x00	; 0
    2400:	91 2c       	mov	r9, r1
    2402:	81 e0       	ldi	r24, 0x01	; 1
    2404:	90 e0       	ldi	r25, 0x00	; 0
    2406:	f9 01       	movw	r30, r18
    2408:	73 fc       	sbrc	r7, 3
    240a:	a5 91       	lpm	r26, Z+
    240c:	73 fe       	sbrs	r7, 3
    240e:	a1 91       	ld	r26, Z+
    2410:	8f 01       	movw	r16, r30
    2412:	7a 2f       	mov	r23, r26
    2414:	9f 01       	movw	r18, r30
    2416:	a1 11       	cpse	r26, r1
    2418:	03 c0       	rjmp	.+6      	; 0x2420 <conv_brk+0x4e>
    241a:	80 e0       	ldi	r24, 0x00	; 0
    241c:	90 e0       	ldi	r25, 0x00	; 0
    241e:	7d c0       	rjmp	.+250    	; 0x251a <conv_brk+0x148>
    2420:	ae 35       	cpi	r26, 0x5E	; 94
    2422:	19 f4       	brne	.+6      	; 0x242a <conv_brk+0x58>
    2424:	41 15       	cp	r20, r1
    2426:	51 05       	cpc	r21, r1
    2428:	59 f1       	breq	.+86     	; 0x2480 <conv_brk+0xae>
    242a:	e9 2d       	mov	r30, r9
    242c:	f0 e0       	ldi	r31, 0x00	; 0
    242e:	e4 17       	cp	r30, r20
    2430:	f5 07       	cpc	r31, r21
    2432:	3c f4       	brge	.+14     	; 0x2442 <conv_brk+0x70>
    2434:	ad 35       	cpi	r26, 0x5D	; 93
    2436:	69 f1       	breq	.+90     	; 0x2492 <conv_brk+0xc0>
    2438:	ad 32       	cpi	r26, 0x2D	; 45
    243a:	19 f4       	brne	.+6      	; 0x2442 <conv_brk+0x70>
    243c:	bb 23       	and	r27, r27
    243e:	19 f1       	breq	.+70     	; 0x2486 <conv_brk+0xb4>
    2440:	03 c0       	rjmp	.+6      	; 0x2448 <conv_brk+0x76>
    2442:	b1 11       	cpse	r27, r1
    2444:	01 c0       	rjmp	.+2      	; 0x2448 <conv_brk+0x76>
    2446:	8a 2e       	mov	r8, r26
    2448:	e7 2f       	mov	r30, r23
    244a:	e6 95       	lsr	r30
    244c:	e6 95       	lsr	r30
    244e:	e6 95       	lsr	r30
    2450:	86 01       	movw	r16, r12
    2452:	0e 0f       	add	r16, r30
    2454:	11 1d       	adc	r17, r1
    2456:	f8 01       	movw	r30, r16
    2458:	a7 2f       	mov	r26, r23
    245a:	a7 70       	andi	r26, 0x07	; 7
    245c:	8c 01       	movw	r16, r24
    245e:	02 c0       	rjmp	.+4      	; 0x2464 <conv_brk+0x92>
    2460:	00 0f       	add	r16, r16
    2462:	11 1f       	adc	r17, r17
    2464:	aa 95       	dec	r26
    2466:	e2 f7       	brpl	.-8      	; 0x2460 <conv_brk+0x8e>
    2468:	d8 01       	movw	r26, r16
    246a:	b0 81       	ld	r27, Z
    246c:	ba 2b       	or	r27, r26
    246e:	b0 83       	st	Z, r27
    2470:	78 15       	cp	r23, r8
    2472:	59 f0       	breq	.+22     	; 0x248a <conv_brk+0xb8>
    2474:	78 15       	cp	r23, r8
    2476:	10 f4       	brcc	.+4      	; 0x247c <conv_brk+0xaa>
    2478:	7f 5f       	subi	r23, 0xFF	; 255
    247a:	e6 cf       	rjmp	.-52     	; 0x2448 <conv_brk+0x76>
    247c:	71 50       	subi	r23, 0x01	; 1
    247e:	e4 cf       	rjmp	.-56     	; 0x2448 <conv_brk+0x76>
    2480:	99 24       	eor	r9, r9
    2482:	93 94       	inc	r9
    2484:	03 c0       	rjmp	.+6      	; 0x248c <conv_brk+0xba>
    2486:	b1 e0       	ldi	r27, 0x01	; 1
    2488:	01 c0       	rjmp	.+2      	; 0x248c <conv_brk+0xba>
    248a:	b0 e0       	ldi	r27, 0x00	; 0
    248c:	4f 5f       	subi	r20, 0xFF	; 255
    248e:	5f 4f       	sbci	r21, 0xFF	; 255
    2490:	ba cf       	rjmp	.-140    	; 0x2406 <conv_brk+0x34>
    2492:	bb 23       	and	r27, r27
    2494:	19 f0       	breq	.+6      	; 0x249c <conv_brk+0xca>
    2496:	8e 81       	ldd	r24, Y+6	; 0x06
    2498:	80 62       	ori	r24, 0x20	; 32
    249a:	8e 83       	std	Y+6, r24	; 0x06
    249c:	91 10       	cpse	r9, r1
    249e:	03 c0       	rjmp	.+6      	; 0x24a6 <conv_brk+0xd4>
    24a0:	99 24       	eor	r9, r9
    24a2:	93 94       	inc	r9
    24a4:	15 c0       	rjmp	.+42     	; 0x24d0 <conv_brk+0xfe>
    24a6:	f6 01       	movw	r30, r12
    24a8:	ce 01       	movw	r24, r28
    24aa:	81 96       	adiw	r24, 0x21	; 33
    24ac:	20 81       	ld	r18, Z
    24ae:	20 95       	com	r18
    24b0:	21 93       	st	Z+, r18
    24b2:	e8 17       	cp	r30, r24
    24b4:	f9 07       	cpc	r31, r25
    24b6:	d1 f7       	brne	.-12     	; 0x24ac <conv_brk+0xda>
    24b8:	f3 cf       	rjmp	.-26     	; 0x24a0 <conv_brk+0xce>
    24ba:	e1 14       	cp	r14, r1
    24bc:	f1 04       	cpc	r15, r1
    24be:	29 f0       	breq	.+10     	; 0x24ca <conv_brk+0xf8>
    24c0:	d7 01       	movw	r26, r14
    24c2:	8c 93       	st	X, r24
    24c4:	f7 01       	movw	r30, r14
    24c6:	31 96       	adiw	r30, 0x01	; 1
    24c8:	7f 01       	movw	r14, r30
    24ca:	61 50       	subi	r22, 0x01	; 1
    24cc:	01 f1       	breq	.+64     	; 0x250e <conv_brk+0x13c>
    24ce:	91 2c       	mov	r9, r1
    24d0:	c5 01       	movw	r24, r10
    24d2:	69 a3       	std	Y+33, r22	; 0x21
    24d4:	0e 94 16 10 	call	0x202c	; 0x202c <fgetc>
    24d8:	69 a1       	ldd	r22, Y+33	; 0x21
    24da:	97 fd       	sbrc	r25, 7
    24dc:	16 c0       	rjmp	.+44     	; 0x250a <conv_brk+0x138>
    24de:	28 2f       	mov	r18, r24
    24e0:	26 95       	lsr	r18
    24e2:	26 95       	lsr	r18
    24e4:	26 95       	lsr	r18
    24e6:	f6 01       	movw	r30, r12
    24e8:	e2 0f       	add	r30, r18
    24ea:	f1 1d       	adc	r31, r1
    24ec:	20 81       	ld	r18, Z
    24ee:	30 e0       	ldi	r19, 0x00	; 0
    24f0:	ac 01       	movw	r20, r24
    24f2:	47 70       	andi	r20, 0x07	; 7
    24f4:	55 27       	eor	r21, r21
    24f6:	02 c0       	rjmp	.+4      	; 0x24fc <conv_brk+0x12a>
    24f8:	35 95       	asr	r19
    24fa:	27 95       	ror	r18
    24fc:	4a 95       	dec	r20
    24fe:	e2 f7       	brpl	.-8      	; 0x24f8 <conv_brk+0x126>
    2500:	20 fd       	sbrc	r18, 0
    2502:	db cf       	rjmp	.-74     	; 0x24ba <conv_brk+0xe8>
    2504:	b5 01       	movw	r22, r10
    2506:	0e 94 d6 13 	call	0x27ac	; 0x27ac <ungetc>
    250a:	91 10       	cpse	r9, r1
    250c:	86 cf       	rjmp	.-244    	; 0x241a <conv_brk+0x48>
    250e:	e1 14       	cp	r14, r1
    2510:	f1 04       	cpc	r15, r1
    2512:	11 f0       	breq	.+4      	; 0x2518 <conv_brk+0x146>
    2514:	d7 01       	movw	r26, r14
    2516:	1c 92       	st	X, r1
    2518:	c8 01       	movw	r24, r16
    251a:	a1 96       	adiw	r28, 0x21	; 33
    251c:	ed e0       	ldi	r30, 0x0D	; 13
    251e:	0c 94 c5 0c 	jmp	0x198a	; 0x198a <__epilogue_restores__+0xa>

00002522 <vfscanf>:
    2522:	4f 92       	push	r4
    2524:	5f 92       	push	r5
    2526:	7f 92       	push	r7
    2528:	8f 92       	push	r8
    252a:	9f 92       	push	r9
    252c:	af 92       	push	r10
    252e:	bf 92       	push	r11
    2530:	cf 92       	push	r12
    2532:	df 92       	push	r13
    2534:	ef 92       	push	r14
    2536:	ff 92       	push	r15
    2538:	0f 93       	push	r16
    253a:	1f 93       	push	r17
    253c:	cf 93       	push	r28
    253e:	df 93       	push	r29
    2540:	1f 92       	push	r1
    2542:	cd b7       	in	r28, 0x3d	; 61
    2544:	de b7       	in	r29, 0x3e	; 62
    2546:	8c 01       	movw	r16, r24
    2548:	2b 01       	movw	r4, r22
    254a:	7a 01       	movw	r14, r20
    254c:	fc 01       	movw	r30, r24
    254e:	17 82       	std	Z+7, r1	; 0x07
    2550:	16 82       	std	Z+6, r1	; 0x06
    2552:	a1 2c       	mov	r10, r1
    2554:	f8 01       	movw	r30, r16
    2556:	d3 80       	ldd	r13, Z+3	; 0x03
    2558:	f2 01       	movw	r30, r4
    255a:	d3 fc       	sbrc	r13, 3
    255c:	85 91       	lpm	r24, Z+
    255e:	d3 fe       	sbrs	r13, 3
    2560:	81 91       	ld	r24, Z+
    2562:	38 2f       	mov	r19, r24
    2564:	2f 01       	movw	r4, r30
    2566:	88 23       	and	r24, r24
    2568:	09 f4       	brne	.+2      	; 0x256c <vfscanf+0x4a>
    256a:	fc c0       	rjmp	.+504    	; 0x2764 <vfscanf+0x242>
    256c:	90 e0       	ldi	r25, 0x00	; 0
    256e:	39 83       	std	Y+1, r19	; 0x01
    2570:	0e 94 dd 0f 	call	0x1fba	; 0x1fba <isspace>
    2574:	39 81       	ldd	r19, Y+1	; 0x01
    2576:	89 2b       	or	r24, r25
    2578:	21 f0       	breq	.+8      	; 0x2582 <vfscanf+0x60>
    257a:	c8 01       	movw	r24, r16
    257c:	0e 94 3f 11 	call	0x227e	; 0x227e <skip_spaces>
    2580:	e9 cf       	rjmp	.-46     	; 0x2554 <vfscanf+0x32>
    2582:	35 32       	cpi	r19, 0x25	; 37
    2584:	41 f4       	brne	.+16     	; 0x2596 <vfscanf+0x74>
    2586:	f2 01       	movw	r30, r4
    2588:	d3 fc       	sbrc	r13, 3
    258a:	35 91       	lpm	r19, Z+
    258c:	d3 fe       	sbrs	r13, 3
    258e:	31 91       	ld	r19, Z+
    2590:	2f 01       	movw	r4, r30
    2592:	35 32       	cpi	r19, 0x25	; 37
    2594:	69 f4       	brne	.+26     	; 0x25b0 <vfscanf+0x8e>
    2596:	c8 01       	movw	r24, r16
    2598:	39 83       	std	Y+1, r19	; 0x01
    259a:	0e 94 16 10 	call	0x202c	; 0x202c <fgetc>
    259e:	39 81       	ldd	r19, Y+1	; 0x01
    25a0:	97 fd       	sbrc	r25, 7
    25a2:	de c0       	rjmp	.+444    	; 0x2760 <vfscanf+0x23e>
    25a4:	38 17       	cp	r19, r24
    25a6:	b1 f2       	breq	.-84     	; 0x2554 <vfscanf+0x32>
    25a8:	b8 01       	movw	r22, r16
    25aa:	0e 94 d6 13 	call	0x27ac	; 0x27ac <ungetc>
    25ae:	da c0       	rjmp	.+436    	; 0x2764 <vfscanf+0x242>
    25b0:	3a 32       	cpi	r19, 0x2A	; 42
    25b2:	41 f4       	brne	.+16     	; 0x25c4 <vfscanf+0xa2>
    25b4:	d3 fc       	sbrc	r13, 3
    25b6:	35 91       	lpm	r19, Z+
    25b8:	d3 fe       	sbrs	r13, 3
    25ba:	31 91       	ld	r19, Z+
    25bc:	2f 01       	movw	r4, r30
    25be:	bb 24       	eor	r11, r11
    25c0:	b3 94       	inc	r11
    25c2:	01 c0       	rjmp	.+2      	; 0x25c6 <vfscanf+0xa4>
    25c4:	b1 2c       	mov	r11, r1
    25c6:	71 2c       	mov	r7, r1
    25c8:	20 ed       	ldi	r18, 0xD0	; 208
    25ca:	23 0f       	add	r18, r19
    25cc:	2a 30       	cpi	r18, 0x0A	; 10
    25ce:	90 f4       	brcc	.+36     	; 0x25f4 <vfscanf+0xd2>
    25d0:	fb 2d       	mov	r31, r11
    25d2:	f2 60       	ori	r31, 0x02	; 2
    25d4:	bf 2e       	mov	r11, r31
    25d6:	67 2d       	mov	r22, r7
    25d8:	70 e0       	ldi	r23, 0x00	; 0
    25da:	80 e0       	ldi	r24, 0x00	; 0
    25dc:	90 e0       	ldi	r25, 0x00	; 0
    25de:	40 e2       	ldi	r20, 0x20	; 32
    25e0:	0e 94 1f 11 	call	0x223e	; 0x223e <mulacc>
    25e4:	76 2e       	mov	r7, r22
    25e6:	f2 01       	movw	r30, r4
    25e8:	d3 fc       	sbrc	r13, 3
    25ea:	35 91       	lpm	r19, Z+
    25ec:	d3 fe       	sbrs	r13, 3
    25ee:	31 91       	ld	r19, Z+
    25f0:	2f 01       	movw	r4, r30
    25f2:	ea cf       	rjmp	.-44     	; 0x25c8 <vfscanf+0xa6>
    25f4:	b1 fe       	sbrs	r11, 1
    25f6:	03 c0       	rjmp	.+6      	; 0x25fe <vfscanf+0xdc>
    25f8:	71 10       	cpse	r7, r1
    25fa:	03 c0       	rjmp	.+6      	; 0x2602 <vfscanf+0xe0>
    25fc:	b3 c0       	rjmp	.+358    	; 0x2764 <vfscanf+0x242>
    25fe:	77 24       	eor	r7, r7
    2600:	7a 94       	dec	r7
    2602:	38 36       	cpi	r19, 0x68	; 104
    2604:	19 f0       	breq	.+6      	; 0x260c <vfscanf+0xea>
    2606:	3c 36       	cpi	r19, 0x6C	; 108
    2608:	61 f0       	breq	.+24     	; 0x2622 <vfscanf+0x100>
    260a:	14 c0       	rjmp	.+40     	; 0x2634 <vfscanf+0x112>
    260c:	f2 01       	movw	r30, r4
    260e:	d3 fc       	sbrc	r13, 3
    2610:	35 91       	lpm	r19, Z+
    2612:	d3 fe       	sbrs	r13, 3
    2614:	31 91       	ld	r19, Z+
    2616:	2f 01       	movw	r4, r30
    2618:	38 36       	cpi	r19, 0x68	; 104
    261a:	61 f4       	brne	.+24     	; 0x2634 <vfscanf+0x112>
    261c:	fb 2d       	mov	r31, r11
    261e:	f8 60       	ori	r31, 0x08	; 8
    2620:	bf 2e       	mov	r11, r31
    2622:	8b 2d       	mov	r24, r11
    2624:	84 60       	ori	r24, 0x04	; 4
    2626:	b8 2e       	mov	r11, r24
    2628:	f2 01       	movw	r30, r4
    262a:	d3 fc       	sbrc	r13, 3
    262c:	35 91       	lpm	r19, Z+
    262e:	d3 fe       	sbrs	r13, 3
    2630:	31 91       	ld	r19, Z+
    2632:	2f 01       	movw	r4, r30
    2634:	33 23       	and	r19, r19
    2636:	09 f4       	brne	.+2      	; 0x263a <vfscanf+0x118>
    2638:	95 c0       	rjmp	.+298    	; 0x2764 <vfscanf+0x242>
    263a:	63 2f       	mov	r22, r19
    263c:	70 e0       	ldi	r23, 0x00	; 0
    263e:	88 e8       	ldi	r24, 0x88	; 136
    2640:	92 e0       	ldi	r25, 0x02	; 2
    2642:	39 83       	std	Y+1, r19	; 0x01
    2644:	0e 94 cb 13 	call	0x2796	; 0x2796 <strchr_P>
    2648:	39 81       	ldd	r19, Y+1	; 0x01
    264a:	89 2b       	or	r24, r25
    264c:	09 f4       	brne	.+2      	; 0x2650 <vfscanf+0x12e>
    264e:	8a c0       	rjmp	.+276    	; 0x2764 <vfscanf+0x242>
    2650:	b0 fc       	sbrc	r11, 0
    2652:	07 c0       	rjmp	.+14     	; 0x2662 <vfscanf+0x140>
    2654:	f7 01       	movw	r30, r14
    2656:	c0 80       	ld	r12, Z
    2658:	d1 80       	ldd	r13, Z+1	; 0x01
    265a:	c7 01       	movw	r24, r14
    265c:	02 96       	adiw	r24, 0x02	; 2
    265e:	7c 01       	movw	r14, r24
    2660:	02 c0       	rjmp	.+4      	; 0x2666 <vfscanf+0x144>
    2662:	c1 2c       	mov	r12, r1
    2664:	d1 2c       	mov	r13, r1
    2666:	3e 36       	cpi	r19, 0x6E	; 110
    2668:	51 f4       	brne	.+20     	; 0x267e <vfscanf+0x15c>
    266a:	f8 01       	movw	r30, r16
    266c:	46 81       	ldd	r20, Z+6	; 0x06
    266e:	57 81       	ldd	r21, Z+7	; 0x07
    2670:	60 e0       	ldi	r22, 0x00	; 0
    2672:	70 e0       	ldi	r23, 0x00	; 0
    2674:	2b 2d       	mov	r18, r11
    2676:	c6 01       	movw	r24, r12
    2678:	0e 94 13 11 	call	0x2226	; 0x2226 <putval>
    267c:	6b cf       	rjmp	.-298    	; 0x2554 <vfscanf+0x32>
    267e:	33 36       	cpi	r19, 0x63	; 99
    2680:	a1 f4       	brne	.+40     	; 0x26aa <vfscanf+0x188>
    2682:	b1 fc       	sbrc	r11, 1
    2684:	02 c0       	rjmp	.+4      	; 0x268a <vfscanf+0x168>
    2686:	77 24       	eor	r7, r7
    2688:	73 94       	inc	r7
    268a:	c8 01       	movw	r24, r16
    268c:	0e 94 16 10 	call	0x202c	; 0x202c <fgetc>
    2690:	97 fd       	sbrc	r25, 7
    2692:	66 c0       	rjmp	.+204    	; 0x2760 <vfscanf+0x23e>
    2694:	c1 14       	cp	r12, r1
    2696:	d1 04       	cpc	r13, r1
    2698:	29 f0       	breq	.+10     	; 0x26a4 <vfscanf+0x182>
    269a:	f6 01       	movw	r30, r12
    269c:	80 83       	st	Z, r24
    269e:	c6 01       	movw	r24, r12
    26a0:	01 96       	adiw	r24, 0x01	; 1
    26a2:	6c 01       	movw	r12, r24
    26a4:	7a 94       	dec	r7
    26a6:	89 f7       	brne	.-30     	; 0x268a <vfscanf+0x168>
    26a8:	57 c0       	rjmp	.+174    	; 0x2758 <vfscanf+0x236>
    26aa:	3b 35       	cpi	r19, 0x5B	; 91
    26ac:	59 f4       	brne	.+22     	; 0x26c4 <vfscanf+0x1a2>
    26ae:	92 01       	movw	r18, r4
    26b0:	a6 01       	movw	r20, r12
    26b2:	67 2d       	mov	r22, r7
    26b4:	c8 01       	movw	r24, r16
    26b6:	0e 94 e9 11 	call	0x23d2	; 0x23d2 <conv_brk>
    26ba:	2c 01       	movw	r4, r24
    26bc:	00 97       	sbiw	r24, 0x00	; 0
    26be:	09 f0       	breq	.+2      	; 0x26c2 <vfscanf+0x1a0>
    26c0:	4b c0       	rjmp	.+150    	; 0x2758 <vfscanf+0x236>
    26c2:	45 c0       	rjmp	.+138    	; 0x274e <vfscanf+0x22c>
    26c4:	c8 01       	movw	r24, r16
    26c6:	39 83       	std	Y+1, r19	; 0x01
    26c8:	0e 94 3f 11 	call	0x227e	; 0x227e <skip_spaces>
    26cc:	39 81       	ldd	r19, Y+1	; 0x01
    26ce:	97 fd       	sbrc	r25, 7
    26d0:	47 c0       	rjmp	.+142    	; 0x2760 <vfscanf+0x23e>
    26d2:	3f 36       	cpi	r19, 0x6F	; 111
    26d4:	69 f1       	breq	.+90     	; 0x2730 <vfscanf+0x20e>
    26d6:	28 f4       	brcc	.+10     	; 0x26e2 <vfscanf+0x1c0>
    26d8:	34 36       	cpi	r19, 0x64	; 100
    26da:	31 f1       	breq	.+76     	; 0x2728 <vfscanf+0x206>
    26dc:	39 36       	cpi	r19, 0x69	; 105
    26de:	79 f1       	breq	.+94     	; 0x273e <vfscanf+0x21c>
    26e0:	2b c0       	rjmp	.+86     	; 0x2738 <vfscanf+0x216>
    26e2:	33 37       	cpi	r19, 0x73	; 115
    26e4:	69 f0       	breq	.+26     	; 0x2700 <vfscanf+0x1de>
    26e6:	35 37       	cpi	r19, 0x75	; 117
    26e8:	f9 f0       	breq	.+62     	; 0x2728 <vfscanf+0x206>
    26ea:	26 c0       	rjmp	.+76     	; 0x2738 <vfscanf+0x216>
    26ec:	c1 14       	cp	r12, r1
    26ee:	d1 04       	cpc	r13, r1
    26f0:	29 f0       	breq	.+10     	; 0x26fc <vfscanf+0x1da>
    26f2:	f6 01       	movw	r30, r12
    26f4:	80 82       	st	Z, r8
    26f6:	c6 01       	movw	r24, r12
    26f8:	01 96       	adiw	r24, 0x01	; 1
    26fa:	6c 01       	movw	r12, r24
    26fc:	7a 94       	dec	r7
    26fe:	71 f0       	breq	.+28     	; 0x271c <vfscanf+0x1fa>
    2700:	c8 01       	movw	r24, r16
    2702:	0e 94 16 10 	call	0x202c	; 0x202c <fgetc>
    2706:	4c 01       	movw	r8, r24
    2708:	97 fd       	sbrc	r25, 7
    270a:	08 c0       	rjmp	.+16     	; 0x271c <vfscanf+0x1fa>
    270c:	0e 94 dd 0f 	call	0x1fba	; 0x1fba <isspace>
    2710:	89 2b       	or	r24, r25
    2712:	61 f3       	breq	.-40     	; 0x26ec <vfscanf+0x1ca>
    2714:	b8 01       	movw	r22, r16
    2716:	c4 01       	movw	r24, r8
    2718:	0e 94 d6 13 	call	0x27ac	; 0x27ac <ungetc>
    271c:	c1 14       	cp	r12, r1
    271e:	d1 04       	cpc	r13, r1
    2720:	d9 f0       	breq	.+54     	; 0x2758 <vfscanf+0x236>
    2722:	f6 01       	movw	r30, r12
    2724:	10 82       	st	Z, r1
    2726:	18 c0       	rjmp	.+48     	; 0x2758 <vfscanf+0x236>
    2728:	fb 2d       	mov	r31, r11
    272a:	f0 62       	ori	r31, 0x20	; 32
    272c:	bf 2e       	mov	r11, r31
    272e:	07 c0       	rjmp	.+14     	; 0x273e <vfscanf+0x21c>
    2730:	8b 2d       	mov	r24, r11
    2732:	80 61       	ori	r24, 0x10	; 16
    2734:	b8 2e       	mov	r11, r24
    2736:	03 c0       	rjmp	.+6      	; 0x273e <vfscanf+0x21c>
    2738:	9b 2d       	mov	r25, r11
    273a:	90 64       	ori	r25, 0x40	; 64
    273c:	b9 2e       	mov	r11, r25
    273e:	2b 2d       	mov	r18, r11
    2740:	a6 01       	movw	r20, r12
    2742:	67 2d       	mov	r22, r7
    2744:	c8 01       	movw	r24, r16
    2746:	0e 94 58 11 	call	0x22b0	; 0x22b0 <conv_int>
    274a:	81 11       	cpse	r24, r1
    274c:	05 c0       	rjmp	.+10     	; 0x2758 <vfscanf+0x236>
    274e:	f8 01       	movw	r30, r16
    2750:	83 81       	ldd	r24, Z+3	; 0x03
    2752:	80 73       	andi	r24, 0x30	; 48
    2754:	29 f4       	brne	.+10     	; 0x2760 <vfscanf+0x23e>
    2756:	06 c0       	rjmp	.+12     	; 0x2764 <vfscanf+0x242>
    2758:	b0 fc       	sbrc	r11, 0
    275a:	fc ce       	rjmp	.-520    	; 0x2554 <vfscanf+0x32>
    275c:	a3 94       	inc	r10
    275e:	fa ce       	rjmp	.-524    	; 0x2554 <vfscanf+0x32>
    2760:	aa 20       	and	r10, r10
    2762:	19 f0       	breq	.+6      	; 0x276a <vfscanf+0x248>
    2764:	8a 2d       	mov	r24, r10
    2766:	90 e0       	ldi	r25, 0x00	; 0
    2768:	02 c0       	rjmp	.+4      	; 0x276e <vfscanf+0x24c>
    276a:	8f ef       	ldi	r24, 0xFF	; 255
    276c:	9f ef       	ldi	r25, 0xFF	; 255
    276e:	0f 90       	pop	r0
    2770:	df 91       	pop	r29
    2772:	cf 91       	pop	r28
    2774:	1f 91       	pop	r17
    2776:	0f 91       	pop	r16
    2778:	ff 90       	pop	r15
    277a:	ef 90       	pop	r14
    277c:	df 90       	pop	r13
    277e:	cf 90       	pop	r12
    2780:	bf 90       	pop	r11
    2782:	af 90       	pop	r10
    2784:	9f 90       	pop	r9
    2786:	8f 90       	pop	r8
    2788:	7f 90       	pop	r7
    278a:	5f 90       	pop	r5
    278c:	4f 90       	pop	r4
    278e:	08 95       	ret

00002790 <__ctype_isfalse>:
    2790:	99 27       	eor	r25, r25
    2792:	88 27       	eor	r24, r24

00002794 <__ctype_istrue>:
    2794:	08 95       	ret

00002796 <strchr_P>:
    2796:	fc 01       	movw	r30, r24
    2798:	05 90       	lpm	r0, Z+
    279a:	06 16       	cp	r0, r22
    279c:	21 f0       	breq	.+8      	; 0x27a6 <strchr_P+0x10>
    279e:	00 20       	and	r0, r0
    27a0:	d9 f7       	brne	.-10     	; 0x2798 <strchr_P+0x2>
    27a2:	c0 01       	movw	r24, r0
    27a4:	08 95       	ret
    27a6:	31 97       	sbiw	r30, 0x01	; 1
    27a8:	cf 01       	movw	r24, r30
    27aa:	08 95       	ret

000027ac <ungetc>:
    27ac:	fb 01       	movw	r30, r22
    27ae:	23 81       	ldd	r18, Z+3	; 0x03
    27b0:	20 ff       	sbrs	r18, 0
    27b2:	12 c0       	rjmp	.+36     	; 0x27d8 <ungetc+0x2c>
    27b4:	26 fd       	sbrc	r18, 6
    27b6:	10 c0       	rjmp	.+32     	; 0x27d8 <ungetc+0x2c>
    27b8:	8f 3f       	cpi	r24, 0xFF	; 255
    27ba:	3f ef       	ldi	r19, 0xFF	; 255
    27bc:	93 07       	cpc	r25, r19
    27be:	61 f0       	breq	.+24     	; 0x27d8 <ungetc+0x2c>
    27c0:	82 83       	std	Z+2, r24	; 0x02
    27c2:	2f 7d       	andi	r18, 0xDF	; 223
    27c4:	20 64       	ori	r18, 0x40	; 64
    27c6:	23 83       	std	Z+3, r18	; 0x03
    27c8:	26 81       	ldd	r18, Z+6	; 0x06
    27ca:	37 81       	ldd	r19, Z+7	; 0x07
    27cc:	21 50       	subi	r18, 0x01	; 1
    27ce:	31 09       	sbc	r19, r1
    27d0:	37 83       	std	Z+7, r19	; 0x07
    27d2:	26 83       	std	Z+6, r18	; 0x06
    27d4:	99 27       	eor	r25, r25
    27d6:	08 95       	ret
    27d8:	8f ef       	ldi	r24, 0xFF	; 255
    27da:	9f ef       	ldi	r25, 0xFF	; 255
    27dc:	08 95       	ret

000027de <__mulsi3>:
    27de:	db 01       	movw	r26, r22
    27e0:	8f 93       	push	r24
    27e2:	9f 93       	push	r25
    27e4:	0e 94 21 14 	call	0x2842	; 0x2842 <__muluhisi3>
    27e8:	bf 91       	pop	r27
    27ea:	af 91       	pop	r26
    27ec:	a2 9f       	mul	r26, r18
    27ee:	80 0d       	add	r24, r0
    27f0:	91 1d       	adc	r25, r1
    27f2:	a3 9f       	mul	r26, r19
    27f4:	90 0d       	add	r25, r0
    27f6:	b2 9f       	mul	r27, r18
    27f8:	90 0d       	add	r25, r0
    27fa:	11 24       	eor	r1, r1
    27fc:	08 95       	ret

000027fe <__udivmodsi4>:
    27fe:	a1 e2       	ldi	r26, 0x21	; 33
    2800:	1a 2e       	mov	r1, r26
    2802:	aa 1b       	sub	r26, r26
    2804:	bb 1b       	sub	r27, r27
    2806:	fd 01       	movw	r30, r26
    2808:	0d c0       	rjmp	.+26     	; 0x2824 <__udivmodsi4_ep>

0000280a <__udivmodsi4_loop>:
    280a:	aa 1f       	adc	r26, r26
    280c:	bb 1f       	adc	r27, r27
    280e:	ee 1f       	adc	r30, r30
    2810:	ff 1f       	adc	r31, r31
    2812:	a2 17       	cp	r26, r18
    2814:	b3 07       	cpc	r27, r19
    2816:	e4 07       	cpc	r30, r20
    2818:	f5 07       	cpc	r31, r21
    281a:	20 f0       	brcs	.+8      	; 0x2824 <__udivmodsi4_ep>
    281c:	a2 1b       	sub	r26, r18
    281e:	b3 0b       	sbc	r27, r19
    2820:	e4 0b       	sbc	r30, r20
    2822:	f5 0b       	sbc	r31, r21

00002824 <__udivmodsi4_ep>:
    2824:	66 1f       	adc	r22, r22
    2826:	77 1f       	adc	r23, r23
    2828:	88 1f       	adc	r24, r24
    282a:	99 1f       	adc	r25, r25
    282c:	1a 94       	dec	r1
    282e:	69 f7       	brne	.-38     	; 0x280a <__udivmodsi4_loop>
    2830:	60 95       	com	r22
    2832:	70 95       	com	r23
    2834:	80 95       	com	r24
    2836:	90 95       	com	r25
    2838:	9b 01       	movw	r18, r22
    283a:	ac 01       	movw	r20, r24
    283c:	bd 01       	movw	r22, r26
    283e:	cf 01       	movw	r24, r30
    2840:	08 95       	ret

00002842 <__muluhisi3>:
    2842:	0e 94 2c 14 	call	0x2858	; 0x2858 <__umulhisi3>
    2846:	a5 9f       	mul	r26, r21
    2848:	90 0d       	add	r25, r0
    284a:	b4 9f       	mul	r27, r20
    284c:	90 0d       	add	r25, r0
    284e:	a4 9f       	mul	r26, r20
    2850:	80 0d       	add	r24, r0
    2852:	91 1d       	adc	r25, r1
    2854:	11 24       	eor	r1, r1
    2856:	08 95       	ret

00002858 <__umulhisi3>:
    2858:	a2 9f       	mul	r26, r18
    285a:	b0 01       	movw	r22, r0
    285c:	b3 9f       	mul	r27, r19
    285e:	c0 01       	movw	r24, r0
    2860:	a3 9f       	mul	r26, r19
    2862:	70 0d       	add	r23, r0
    2864:	81 1d       	adc	r24, r1
    2866:	11 24       	eor	r1, r1
    2868:	91 1d       	adc	r25, r1
    286a:	b2 9f       	mul	r27, r18
    286c:	70 0d       	add	r23, r0
    286e:	81 1d       	adc	r24, r1
    2870:	11 24       	eor	r1, r1
    2872:	91 1d       	adc	r25, r1
    2874:	08 95       	ret

00002876 <_exit>:
    2876:	f8 94       	cli

00002878 <__stop_program>:
    2878:	ff cf       	rjmp	.-2      	; 0x2878 <__stop_program>
